---
triple:          'arm64-apple-darwin'
binary-path:     '/Users/saurabhchitnis/Documents/GitCode/Cpp_Practice/DataStructures/FunctionWrappers/main'
relocations:
  - { offset: 0x5C, size: 0x8, addend: 0x0, symName: __ZNSt3__1L19piecewise_constructE, symObjAddr: 0x66EF, symBinAddr: 0x100007B19, symSize: 0x0 }
  - { offset: 0x3D89, size: 0x8, addend: 0x0, symName: __ZNSt3__110__function10__not_nullB8ne180100IFdRKdEEEbPT_, symObjAddr: 0x7AC, symBinAddr: 0x100001C94, symSize: 0x20 }
  - { offset: 0x3DBE, size: 0x8, addend: 0x0, symName: __ZNSt3__110__function10__not_nullB8ne180100I4CubeEEbRKT_, symObjAddr: 0x330C, symBinAddr: 0x1000047F4, symSize: 0x18 }
  - { offset: 0x3DEF, size: 0x8, addend: 0x0, symName: '__ZNSt3__110__function10__not_nullB8ne180100IZ4mainE3$_0EEbRKT_', symObjAddr: 0x4B70, symBinAddr: 0x100006058, symSize: 0x18 }
  - { offset: 0x4E6F, size: 0x8, addend: 0x0, symName: __ZNSt3__124__put_character_sequenceB8ne180100IcNS_11char_traitsIcEEEERNS_13basic_ostreamIT_T0_EES7_PKS4_m, symObjAddr: 0x23F0, symBinAddr: 0x1000038D8, symSize: 0x1EC }
  - { offset: 0x7C0D, size: 0x8, addend: 0x0, symName: __ZNSt3__1lsB8ne180100INS_11char_traitsIcEEEERNS_13basic_ostreamIcT_EES6_PKc, symObjAddr: 0x274, symBinAddr: 0x10000175C, symSize: 0x48 }
  - { offset: 0x7DB6, size: 0x8, addend: 0x0, symName: __ZNSt3__116forward_as_tupleB8ne180100IJPFdRKdEEEENS_5tupleIJDpOT_EEES8_, symObjAddr: 0xD2C, symBinAddr: 0x100002214, symSize: 0x2C }
  - { offset: 0x7DEF, size: 0x8, addend: 0x0, symName: __ZNSt3__116forward_as_tupleB8ne180100IJNS_9allocatorIPFdRKdEEEEEENS_5tupleIJDpOT_EEESA_, symObjAddr: 0xD58, symBinAddr: 0x100002240, symSize: 0x2C }
  - { offset: 0x7E6C, size: 0x8, addend: 0x0, symName: __ZNSt3__13getB8ne180100ILm0EJOPFdRKdEEEERNS_13tuple_elementIXT_ENS_5tupleIJDpT0_EEEE4typeERSA_, symObjAddr: 0x1070, symBinAddr: 0x100002558, symSize: 0x24 }
  - { offset: 0x7EAE, size: 0x8, addend: 0x0, symName: __ZNSt3__13getB8ne180100ILm0EJONS_9allocatorIPFdRKdEEEEEERNS_13tuple_elementIXT_ENS_5tupleIJDpT0_EEEE4typeERSC_, symObjAddr: 0x10AC, symBinAddr: 0x100002594, symSize: 0x24 }
  - { offset: 0x83CC, size: 0x8, addend: 0x0, symName: __ZNSt3__117__libcpp_allocateB8ne180100Emm, symObjAddr: 0x1390, symBinAddr: 0x100002878, symSize: 0x28 }
  - { offset: 0x8409, size: 0x8, addend: 0x0, symName: __ZNSt3__121__libcpp_operator_newB8ne180100IJmEEEPvDpT_, symObjAddr: 0x13CC, symBinAddr: 0x1000028B4, symSize: 0x24 }
  - { offset: 0x8442, size: 0x8, addend: 0x0, symName: __ZNSt3__116forward_as_tupleB8ne180100IJRKPFdRKdEEEENS_5tupleIJDpOT_EEESA_, symObjAddr: 0x16C8, symBinAddr: 0x100002BB0, symSize: 0x2C }
  - { offset: 0x8490, size: 0x8, addend: 0x0, symName: __ZNSt3__13getB8ne180100ILm0EJRKPFdRKdEEEERNS_13tuple_elementIXT_ENS_5tupleIJDpT0_EEEE4typeERSB_, symObjAddr: 0x18B8, symBinAddr: 0x100002DA0, symSize: 0x24 }
  - { offset: 0x84D2, size: 0x8, addend: 0x0, symName: __ZNSt3__119__libcpp_deallocateB8ne180100EPvmm, symObjAddr: 0x1AB8, symBinAddr: 0x100002FA0, symSize: 0x30 }
  - { offset: 0x851A, size: 0x8, addend: 0x0, symName: __ZNSt3__127__do_deallocate_handle_sizeB8ne180100IJEEEvPvmDpT_, symObjAddr: 0x1AE8, symBinAddr: 0x100002FD0, symSize: 0x28 }
  - { offset: 0x8558, size: 0x8, addend: 0x0, symName: __ZNSt3__124__libcpp_operator_deleteB8ne180100IJPvEEEvDpT_, symObjAddr: 0x1B10, symBinAddr: 0x100002FF8, symSize: 0x24 }
  - { offset: 0x858D, size: 0x8, addend: 0x0, symName: __ZNSt3__116forward_as_tupleB8ne180100IJRKNS_9allocatorIPFdRKdEEEEEENS_5tupleIJDpOT_EEESC_, symObjAddr: 0x1C88, symBinAddr: 0x100003170, symSize: 0x2C }
  - { offset: 0x85DB, size: 0x8, addend: 0x0, symName: __ZNSt3__13getB8ne180100ILm0EJRKNS_9allocatorIPFdRKdEEEEEERNS_13tuple_elementIXT_ENS_5tupleIJDpT0_EEEE4typeERSD_, symObjAddr: 0x1E6C, symBinAddr: 0x100003354, symSize: 0x24 }
  - { offset: 0x86B8, size: 0x8, addend: 0x0, symName: __ZNSt3__18__invokeB8ne180100IRPFdRKdEJS2_EEEDTclclsr3stdE7declvalIT_EEspclsr3stdE7declvalIT0_EEEEOS6_DpOS7_, symObjAddr: 0x1F38, symBinAddr: 0x100003420, symSize: 0x30 }
  - { offset: 0x8709, size: 0x8, addend: 0x0, symName: __ZNSt3__14swapB8ne180100IPNS_10__function6__baseIFdRKdEEEEENS_9enable_ifIXaasr21is_move_constructibleIT_EE5valuesr18is_move_assignableIS9_EE5valueEvE4typeERS9_SC_, symObjAddr: 0x23B4, symBinAddr: 0x10000389C, symSize: 0x3C }
  - { offset: 0x875A, size: 0x8, addend: 0x0, symName: __ZNSt3__116__pad_and_outputB8ne180100IcNS_11char_traitsIcEEEENS_19ostreambuf_iteratorIT_T0_EES6_PKS4_S8_S8_RNS_8ios_baseES4_, symObjAddr: 0x262C, symBinAddr: 0x100003B14, symSize: 0x240 }
  - { offset: 0x8829, size: 0x8, addend: 0x0, symName: __ZNSt3__112__to_addressB8ne180100IKcEEPT_S3_, symObjAddr: 0x2B94, symBinAddr: 0x10000407C, symSize: 0x14 }
  - { offset: 0x8891, size: 0x8, addend: 0x0, symName: __ZNSt3__19use_facetB8ne180100INS_5ctypeIcEEEERKT_RKNS_6localeE, symObjAddr: 0x2E14, symBinAddr: 0x1000042FC, symSize: 0x2C }
  - { offset: 0x8D5E, size: 0x8, addend: 0x0, symName: __ZNSt3__118__constexpr_strlenB8ne180100EPKc, symObjAddr: 0x2EAC, symBinAddr: 0x100004394, symSize: 0x24 }
  - { offset: 0x8D8A, size: 0x8, addend: 0x0, symName: __ZNSt3__14endlB8ne180100IcNS_11char_traitsIcEEEERNS_13basic_ostreamIT_T0_EES7_, symObjAddr: 0x2F28, symBinAddr: 0x100004410, symSize: 0x58 }
  - { offset: 0x8DCA, size: 0x8, addend: 0x0, symName: __ZNSt3__125__throw_bad_function_callB8ne180100Ev, symObjAddr: 0x2FD8, symBinAddr: 0x1000044C0, symSize: 0x38 }
  - { offset: 0x8FAD, size: 0x8, addend: 0x0, symName: __ZNSt3__116forward_as_tupleB8ne180100IJ4CubeEEENS_5tupleIJDpOT_EEES5_, symObjAddr: 0x382C, symBinAddr: 0x100004D14, symSize: 0x2C }
  - { offset: 0x8FE6, size: 0x8, addend: 0x0, symName: __ZNSt3__116forward_as_tupleB8ne180100IJNS_9allocatorI4CubeEEEEENS_5tupleIJDpOT_EEES7_, symObjAddr: 0x3858, symBinAddr: 0x100004D40, symSize: 0x2C }
  - { offset: 0x9049, size: 0x8, addend: 0x0, symName: __ZNSt3__13getB8ne180100ILm0EJO4CubeEEERNS_13tuple_elementIXT_ENS_5tupleIJDpT0_EEEE4typeERS7_, symObjAddr: 0x3B64, symBinAddr: 0x10000504C, symSize: 0x24 }
  - { offset: 0x908B, size: 0x8, addend: 0x0, symName: __ZNSt3__13getB8ne180100ILm0EJONS_9allocatorI4CubeEEEEERNS_13tuple_elementIXT_ENS_5tupleIJDpT0_EEEE4typeERS9_, symObjAddr: 0x3BA0, symBinAddr: 0x100005088, symSize: 0x24 }
  - { offset: 0x95A9, size: 0x8, addend: 0x0, symName: __ZNSt3__116forward_as_tupleB8ne180100IJRK4CubeEEENS_5tupleIJDpOT_EEES7_, symObjAddr: 0x412C, symBinAddr: 0x100005614, symSize: 0x2C }
  - { offset: 0x95F7, size: 0x8, addend: 0x0, symName: __ZNSt3__13getB8ne180100ILm0EJRK4CubeEEERNS_13tuple_elementIXT_ENS_5tupleIJDpT0_EEEE4typeERS8_, symObjAddr: 0x4310, symBinAddr: 0x1000057F8, symSize: 0x24 }
  - { offset: 0x9639, size: 0x8, addend: 0x0, symName: __ZNSt3__116forward_as_tupleB8ne180100IJRKNS_9allocatorI4CubeEEEEENS_5tupleIJDpOT_EEES9_, symObjAddr: 0x4664, symBinAddr: 0x100005B4C, symSize: 0x2C }
  - { offset: 0x9687, size: 0x8, addend: 0x0, symName: __ZNSt3__13getB8ne180100ILm0EJRKNS_9allocatorI4CubeEEEEERNS_13tuple_elementIXT_ENS_5tupleIJDpT0_EEEE4typeERSA_, symObjAddr: 0x4848, symBinAddr: 0x100005D30, symSize: 0x24 }
  - { offset: 0x96C9, size: 0x8, addend: 0x0, symName: __ZNSt3__18__invokeB8ne180100IR4CubeJRKdEEEDTclclsr3stdE7declvalIT_EEspclsr3stdE7declvalIT0_EEEEOS5_DpOS6_, symObjAddr: 0x4914, symBinAddr: 0x100005DFC, symSize: 0x2C }
  - { offset: 0x987D, size: 0x8, addend: 0x0, symName: '__ZNSt3__116forward_as_tupleB8ne180100IJZ4mainE3$_0EEENS_5tupleIJDpOT_EEES5_', symObjAddr: 0x5090, symBinAddr: 0x100006578, symSize: 0x2C }
  - { offset: 0x98B6, size: 0x8, addend: 0x0, symName: '__ZNSt3__116forward_as_tupleB8ne180100IJNS_9allocatorIZ4mainE3$_0EEEEENS_5tupleIJDpOT_EEES7_', symObjAddr: 0x50BC, symBinAddr: 0x1000065A4, symSize: 0x2C }
  - { offset: 0x9919, size: 0x8, addend: 0x0, symName: '__ZNSt3__13getB8ne180100ILm0EJOZ4mainE3$_0EEERNS_13tuple_elementIXT_ENS_5tupleIJDpT0_EEEE4typeERS7_', symObjAddr: 0x53C8, symBinAddr: 0x1000068B0, symSize: 0x24 }
  - { offset: 0x995B, size: 0x8, addend: 0x0, symName: '__ZNSt3__13getB8ne180100ILm0EJONS_9allocatorIZ4mainE3$_0EEEEERNS_13tuple_elementIXT_ENS_5tupleIJDpT0_EEEE4typeERS9_', symObjAddr: 0x5404, symBinAddr: 0x1000068EC, symSize: 0x24 }
  - { offset: 0x9E79, size: 0x8, addend: 0x0, symName: '__ZNSt3__116forward_as_tupleB8ne180100IJRKZ4mainE3$_0EEENS_5tupleIJDpOT_EEES7_', symObjAddr: 0x5990, symBinAddr: 0x100006E78, symSize: 0x2C }
  - { offset: 0x9EC7, size: 0x8, addend: 0x0, symName: '__ZNSt3__13getB8ne180100ILm0EJRKZ4mainE3$_0EEERNS_13tuple_elementIXT_ENS_5tupleIJDpT0_EEEE4typeERS8_', symObjAddr: 0x5B74, symBinAddr: 0x10000705C, symSize: 0x24 }
  - { offset: 0x9F09, size: 0x8, addend: 0x0, symName: '__ZNSt3__116forward_as_tupleB8ne180100IJRKNS_9allocatorIZ4mainE3$_0EEEEENS_5tupleIJDpOT_EEES9_', symObjAddr: 0x5EC8, symBinAddr: 0x1000073B0, symSize: 0x2C }
  - { offset: 0x9F57, size: 0x8, addend: 0x0, symName: '__ZNSt3__13getB8ne180100ILm0EJRKNS_9allocatorIZ4mainE3$_0EEEEERNS_13tuple_elementIXT_ENS_5tupleIJDpT0_EEEE4typeERSA_', symObjAddr: 0x60AC, symBinAddr: 0x100007594, symSize: 0x24 }
  - { offset: 0x9F99, size: 0x8, addend: 0x0, symName: '__ZNSt3__18__invokeB8ne180100IRZ4mainE3$_0JRKdEEEDTclclsr3stdE7declvalIT_EEspclsr3stdE7declvalIT0_EEEEOS5_DpOS6_', symObjAddr: 0x6178, symBinAddr: 0x100007660, symSize: 0x2C }
  - { offset: 0xAF2C, size: 0x8, addend: 0x0, symName: __ZSt28__throw_bad_array_new_lengthB8ne180100v, symObjAddr: 0x135C, symBinAddr: 0x100002844, symSize: 0x34 }
  - { offset: 0xB9CB, size: 0x8, addend: 0x0, symName: _main, symObjAddr: 0x24, symBinAddr: 0x10000150C, symSize: 0x1A0 }
  - { offset: 0xBC94, size: 0x8, addend: 0x0, symName: __Z6squareRKd, symObjAddr: 0x0, symBinAddr: 0x1000014E8, symSize: 0x24 }
  - { offset: 0xBCC1, size: 0x8, addend: 0x0, symName: __ZNSt3__18functionIFdRKdEEC1B8ne180100Ev, symObjAddr: 0x1C4, symBinAddr: 0x1000016AC, symSize: 0x2C }
  - { offset: 0xBCF1, size: 0x8, addend: 0x0, symName: __ZNSt3__18functionIFdRKdEEaSIRS3_vEERS4_OT_, symObjAddr: 0x1F0, symBinAddr: 0x1000016D8, symSize: 0x84 }
  - { offset: 0xBD32, size: 0x8, addend: 0x0, symName: __Z5printIdEvRKNSt3__18functionIFT_RKS2_EEES2_, symObjAddr: 0x2BC, symBinAddr: 0x1000017A4, symSize: 0x44 }
  - { offset: 0xBD72, size: 0x8, addend: 0x0, symName: __ZNSt3__18functionIFdRKdEEaSIR4CubevEERS4_OT_, symObjAddr: 0x300, symBinAddr: 0x1000017E8, symSize: 0x80 }
  - { offset: 0xBDB3, size: 0x8, addend: 0x0, symName: '__ZNSt3__18functionIFdRKdEEaSIZ4mainE3$_0vEERS4_OT_', symObjAddr: 0x380, symBinAddr: 0x100001868, symSize: 0x80 }
  - { offset: 0xBDF4, size: 0x8, addend: 0x0, symName: __ZNSt3__18functionIFdRKdEED1Ev, symObjAddr: 0x400, symBinAddr: 0x1000018E8, symSize: 0x2C }
  - { offset: 0xBE20, size: 0x8, addend: 0x0, symName: __ZNSt3__18functionIFdRKdEEC2B8ne180100Ev, symObjAddr: 0x42C, symBinAddr: 0x100001914, symSize: 0x2C }
  - { offset: 0xBE4A, size: 0x8, addend: 0x0, symName: __ZNSt3__110__function12__value_funcIFdRKdEEC1B8ne180100Ev, symObjAddr: 0x458, symBinAddr: 0x100001940, symSize: 0x2C }
  - { offset: 0xBE74, size: 0x8, addend: 0x0, symName: __ZNSt3__110__function12__value_funcIFdRKdEEC2B8ne180100Ev, symObjAddr: 0x484, symBinAddr: 0x10000196C, symSize: 0x18 }
  - { offset: 0xBE9E, size: 0x8, addend: 0x0, symName: __ZNSt3__18functionIFdRKdEED2Ev, symObjAddr: 0x49C, symBinAddr: 0x100001984, symSize: 0x2C }
  - { offset: 0xBECA, size: 0x8, addend: 0x0, symName: __ZNSt3__110__function12__value_funcIFdRKdEED1B8ne180100Ev, symObjAddr: 0x4C8, symBinAddr: 0x1000019B0, symSize: 0x2C }
  - { offset: 0xBEF4, size: 0x8, addend: 0x0, symName: __ZNSt3__110__function12__value_funcIFdRKdEED2B8ne180100Ev, symObjAddr: 0x4F4, symBinAddr: 0x1000019DC, symSize: 0x90 }
  - { offset: 0xBF1E, size: 0x8, addend: 0x0, symName: __ZNSt3__18functionIFdRKdEEC1IPS3_vEET_, symObjAddr: 0x584, symBinAddr: 0x100001A6C, symSize: 0x34 }
  - { offset: 0xBF63, size: 0x8, addend: 0x0, symName: __ZNSt3__18functionIFdRKdEE4swapERS4_, symObjAddr: 0x5B8, symBinAddr: 0x100001AA0, symSize: 0x2C }
  - { offset: 0xBF9A, size: 0x8, addend: 0x0, symName: __ZNSt3__18functionIFdRKdEEC2IPS3_vEET_, symObjAddr: 0x5E4, symBinAddr: 0x100001ACC, symSize: 0x38 }
  - { offset: 0xBFDF, size: 0x8, addend: 0x0, symName: __ZNSt3__110__function12__value_funcIFdRKdEEC1B8ne180100IPS4_Li0EEEOT_, symObjAddr: 0x61C, symBinAddr: 0x100001B04, symSize: 0x50 }
  - { offset: 0xC027, size: 0x8, addend: 0x0, symName: __ZNSt3__19allocatorIPFdRKdEEC1B8ne180100Ev, symObjAddr: 0x66C, symBinAddr: 0x100001B54, symSize: 0x2C }
  - { offset: 0xC051, size: 0x8, addend: 0x0, symName: __ZNSt3__110__function12__value_funcIFdRKdEEC1B8ne180100IPS4_NS_9allocatorIS7_EEEEOT_RKT0_, symObjAddr: 0x698, symBinAddr: 0x100001B80, symSize: 0x3C }
  - { offset: 0xC0AB, size: 0x8, addend: 0x0, symName: __ZNSt3__19allocatorIPFdRKdEEC2B8ne180100Ev, symObjAddr: 0x6D4, symBinAddr: 0x100001BBC, symSize: 0x2C }
  - { offset: 0xC0D5, size: 0x8, addend: 0x0, symName: __ZNSt3__116__non_trivial_ifILb1ENS_9allocatorIPFdRKdEEEEC2B8ne180100Ev, symObjAddr: 0x700, symBinAddr: 0x100001BE8, symSize: 0x14 }
  - { offset: 0xC0FF, size: 0x8, addend: 0x0, symName: __ZNSt3__110__function12__value_funcIFdRKdEEC2B8ne180100IPS4_NS_9allocatorIS7_EEEEOT_RKT0_, symObjAddr: 0x714, symBinAddr: 0x100001BFC, symSize: 0x98 }
  - { offset: 0xC1AC, size: 0x8, addend: 0x0, symName: __ZNSt3__19allocatorINS_10__function6__funcIPFdRKdENS0_IS6_EES5_EEEC1B8ne180100IS6_EERKNS0_IT_EE, symObjAddr: 0x7CC, symBinAddr: 0x100001CB4, symSize: 0x34 }
  - { offset: 0xC1EF, size: 0x8, addend: 0x0, symName: __ZNSt3__19allocatorIPFdRKdEEC1B8ne180100INS_10__function6__funcIS4_S5_S3_EEEERKNS0_IT_EE, symObjAddr: 0x800, symBinAddr: 0x100001CE8, symSize: 0x34 }
  - { offset: 0xC22C, size: 0x8, addend: 0x0, symName: __ZNSt3__110__function6__funcIPFdRKdENS_9allocatorIS5_EES4_EC1B8ne180100EOS5_OS7_, symObjAddr: 0x834, symBinAddr: 0x100001D1C, symSize: 0x3C }
  - { offset: 0xC274, size: 0x8, addend: 0x0, symName: __ZNSt3__19allocatorINS_10__function6__funcIPFdRKdENS0_IS6_EES5_EEEC2B8ne180100IS6_EERKNS0_IT_EE, symObjAddr: 0x870, symBinAddr: 0x100001D58, symSize: 0x30 }
  - { offset: 0xC2B1, size: 0x8, addend: 0x0, symName: __ZNSt3__116__non_trivial_ifILb1ENS_9allocatorINS_10__function6__funcIPFdRKdENS1_IS7_EES6_EEEEEC2B8ne180100Ev, symObjAddr: 0x8A0, symBinAddr: 0x100001D88, symSize: 0x14 }
  - { offset: 0xC2DB, size: 0x8, addend: 0x0, symName: __ZNSt3__19allocatorIPFdRKdEEC2B8ne180100INS_10__function6__funcIS4_S5_S3_EEEERKNS0_IT_EE, symObjAddr: 0x8B4, symBinAddr: 0x100001D9C, symSize: 0x30 }
  - { offset: 0xC318, size: 0x8, addend: 0x0, symName: __ZNSt3__110__function6__funcIPFdRKdENS_9allocatorIS5_EES4_EC2B8ne180100EOS5_OS7_, symObjAddr: 0x8E4, symBinAddr: 0x100001DCC, symSize: 0x80 }
  - { offset: 0xC360, size: 0x8, addend: 0x0, symName: __ZNSt3__110__function6__baseIFdRKdEEC2B8ne180100Ev, symObjAddr: 0x964, symBinAddr: 0x100001E4C, symSize: 0x24 }
  - { offset: 0xC38A, size: 0x8, addend: 0x0, symName: __ZNSt3__110__function12__alloc_funcIPFdRKdENS_9allocatorIS5_EES4_EC1B8ne180100EOS5_OS7_, symObjAddr: 0x988, symBinAddr: 0x100001E70, symSize: 0x3C }
  - { offset: 0xC3D0, size: 0x8, addend: 0x0, symName: __ZNSt3__110__function6__baseIFdRKdEED2Ev, symObjAddr: 0x9C4, symBinAddr: 0x100001EAC, symSize: 0x14 }
  - { offset: 0xC3FA, size: 0x8, addend: 0x0, symName: __ZNSt3__110__function6__funcIPFdRKdENS_9allocatorIS5_EES4_ED1Ev, symObjAddr: 0x9D8, symBinAddr: 0x100001EC0, symSize: 0x2C }
  - { offset: 0xC426, size: 0x8, addend: 0x0, symName: __ZNSt3__110__function6__funcIPFdRKdENS_9allocatorIS5_EES4_ED0Ev, symObjAddr: 0xA04, symBinAddr: 0x100001EEC, symSize: 0x30 }
  - { offset: 0xC452, size: 0x8, addend: 0x0, symName: __ZNKSt3__110__function6__funcIPFdRKdENS_9allocatorIS5_EES4_E7__cloneEv, symObjAddr: 0xA34, symBinAddr: 0x100001F1C, symSize: 0xFC }
  - { offset: 0xC4A4, size: 0x8, addend: 0x0, symName: __ZNKSt3__110__function6__funcIPFdRKdENS_9allocatorIS5_EES4_E7__cloneEPNS0_6__baseIS4_EE, symObjAddr: 0xB30, symBinAddr: 0x100002018, symSize: 0x58 }
  - { offset: 0xC4DB, size: 0x8, addend: 0x0, symName: __ZNSt3__110__function6__funcIPFdRKdENS_9allocatorIS5_EES4_E7destroyEv, symObjAddr: 0xB88, symBinAddr: 0x100002070, symSize: 0x28 }
  - { offset: 0xC503, size: 0x8, addend: 0x0, symName: __ZNSt3__110__function6__funcIPFdRKdENS_9allocatorIS5_EES4_E18destroy_deallocateEv, symObjAddr: 0xBB0, symBinAddr: 0x100002098, symSize: 0x58 }
  - { offset: 0xC546, size: 0x8, addend: 0x0, symName: __ZNSt3__110__function6__funcIPFdRKdENS_9allocatorIS5_EES4_EclES3_, symObjAddr: 0xC08, symBinAddr: 0x1000020F0, symSize: 0x30 }
  - { offset: 0xC57D, size: 0x8, addend: 0x0, symName: __ZNKSt3__110__function6__funcIPFdRKdENS_9allocatorIS5_EES4_E6targetERKSt9type_info, symObjAddr: 0xC38, symBinAddr: 0x100002120, symSize: 0x60 }
  - { offset: 0xC5B4, size: 0x8, addend: 0x0, symName: __ZNKSt3__110__function6__funcIPFdRKdENS_9allocatorIS5_EES4_E11target_typeEv, symObjAddr: 0xC98, symBinAddr: 0x100002180, symSize: 0x18 }
  - { offset: 0xC5DC, size: 0x8, addend: 0x0, symName: __ZNSt3__110__function6__baseIFdRKdEED1Ev, symObjAddr: 0xCB0, symBinAddr: 0x100002198, symSize: 0x14 }
  - { offset: 0xC606, size: 0x8, addend: 0x0, symName: __ZNSt3__110__function6__baseIFdRKdEED0Ev, symObjAddr: 0xCC4, symBinAddr: 0x1000021AC, symSize: 0xC }
  - { offset: 0xC630, size: 0x8, addend: 0x0, symName: __ZNSt3__110__function12__alloc_funcIPFdRKdENS_9allocatorIS5_EES4_EC2B8ne180100EOS5_OS7_, symObjAddr: 0xCD0, symBinAddr: 0x1000021B8, symSize: 0x5C }
  - { offset: 0xC676, size: 0x8, addend: 0x0, symName: __ZNSt3__117__compressed_pairIPFdRKdENS_9allocatorIS4_EEEC1B8ne180100IJOS4_EJOS6_EEENS_21piecewise_construct_tENS_5tupleIJDpT_EEENSC_IJDpT0_EEE, symObjAddr: 0xD84, symBinAddr: 0x10000226C, symSize: 0x3C }
  - { offset: 0xC6E0, size: 0x8, addend: 0x0, symName: __ZNSt3__15tupleIJOPFdRKdEEEC1B8ne180100IJS4_ELi0EEEDpOT_, symObjAddr: 0xDC0, symBinAddr: 0x1000022A8, symSize: 0x34 }
  - { offset: 0xC72A, size: 0x8, addend: 0x0, symName: __ZNSt3__15tupleIJOPFdRKdEEEC2B8ne180100IJS4_ELi0EEEDpOT_, symObjAddr: 0xDF4, symBinAddr: 0x1000022DC, symSize: 0x34 }
  - { offset: 0xC774, size: 0x8, addend: 0x0, symName: __ZNSt3__112__tuple_implINS_15__tuple_indicesIJLm0EEEEJOPFdRKdEEEC1B8ne180100IJLm0EEJS7_EJEJEJS6_EEENS1_IJXspT_EEEENS_13__tuple_typesIJDpT0_EEENS1_IJXspT1_EEEENSB_IJDpT2_EEEDpOT3_, symObjAddr: 0xE28, symBinAddr: 0x100002310, symSize: 0x34 }
  - { offset: 0xC809, size: 0x8, addend: 0x0, symName: __ZNSt3__112__tuple_implINS_15__tuple_indicesIJLm0EEEEJOPFdRKdEEEC2B8ne180100IJLm0EEJS7_EJEJEJS6_EEENS1_IJXspT_EEEENS_13__tuple_typesIJDpT0_EEENS1_IJXspT1_EEEENSB_IJDpT2_EEEDpOT3_, symObjAddr: 0xE5C, symBinAddr: 0x100002344, symSize: 0x34 }
  - { offset: 0xC89E, size: 0x8, addend: 0x0, symName: __ZNSt3__112__tuple_leafILm0EOPFdRKdELb0EEC2B8ne180100IS4_vEEOT_, symObjAddr: 0xE90, symBinAddr: 0x100002378, symSize: 0x20 }
  - { offset: 0xC8E1, size: 0x8, addend: 0x0, symName: __ZNSt3__15tupleIJONS_9allocatorIPFdRKdEEEEEC1B8ne180100IJS6_ELi0EEEDpOT_, symObjAddr: 0xEB0, symBinAddr: 0x100002398, symSize: 0x34 }
  - { offset: 0xC92B, size: 0x8, addend: 0x0, symName: __ZNSt3__15tupleIJONS_9allocatorIPFdRKdEEEEEC2B8ne180100IJS6_ELi0EEEDpOT_, symObjAddr: 0xEE4, symBinAddr: 0x1000023CC, symSize: 0x34 }
  - { offset: 0xC975, size: 0x8, addend: 0x0, symName: __ZNSt3__112__tuple_implINS_15__tuple_indicesIJLm0EEEEJONS_9allocatorIPFdRKdEEEEEC1B8ne180100IJLm0EEJS9_EJEJEJS8_EEENS1_IJXspT_EEEENS_13__tuple_typesIJDpT0_EEENS1_IJXspT1_EEEENSD_IJDpT2_EEEDpOT3_, symObjAddr: 0xF18, symBinAddr: 0x100002400, symSize: 0x34 }
  - { offset: 0xCA0A, size: 0x8, addend: 0x0, symName: __ZNSt3__112__tuple_implINS_15__tuple_indicesIJLm0EEEEJONS_9allocatorIPFdRKdEEEEEC2B8ne180100IJLm0EEJS9_EJEJEJS8_EEENS1_IJXspT_EEEENS_13__tuple_typesIJDpT0_EEENS1_IJXspT1_EEEENSD_IJDpT2_EEEDpOT3_, symObjAddr: 0xF4C, symBinAddr: 0x100002434, symSize: 0x34 }
  - { offset: 0xCA9F, size: 0x8, addend: 0x0, symName: __ZNSt3__112__tuple_leafILm0EONS_9allocatorIPFdRKdEEELb0EEC2B8ne180100IS6_vEEOT_, symObjAddr: 0xF80, symBinAddr: 0x100002468, symSize: 0x20 }
  - { offset: 0xCAE2, size: 0x8, addend: 0x0, symName: __ZNSt3__117__compressed_pairIPFdRKdENS_9allocatorIS4_EEEC2B8ne180100IJOS4_EJOS6_EEENS_21piecewise_construct_tENS_5tupleIJDpT_EEENSC_IJDpT0_EEE, symObjAddr: 0xFA0, symBinAddr: 0x100002488, symSize: 0x54 }
  - { offset: 0xCB4C, size: 0x8, addend: 0x0, symName: __ZNSt3__122__compressed_pair_elemIPFdRKdELi0ELb0EEC2B8ne180100IJOS4_EJLm0EEEENS_21piecewise_construct_tENS_5tupleIJDpT_EEENS_15__tuple_indicesIJXspT0_EEEE, symObjAddr: 0xFF4, symBinAddr: 0x1000024DC, symSize: 0x44 }
  - { offset: 0xCBAF, size: 0x8, addend: 0x0, symName: __ZNSt3__122__compressed_pair_elemINS_9allocatorIPFdRKdEEELi1ELb1EEC2B8ne180100IJOS6_EJLm0EEEENS_21piecewise_construct_tENS_5tupleIJDpT_EEENS_15__tuple_indicesIJXspT0_EEEE, symObjAddr: 0x1038, symBinAddr: 0x100002520, symSize: 0x38 }
  - { offset: 0xCC12, size: 0x8, addend: 0x0, symName: __ZNSt3__112__tuple_leafILm0EOPFdRKdELb0EE3getB8ne180100Ev, symObjAddr: 0x1094, symBinAddr: 0x10000257C, symSize: 0x18 }
  - { offset: 0xCC38, size: 0x8, addend: 0x0, symName: __ZNSt3__112__tuple_leafILm0EONS_9allocatorIPFdRKdEEELb0EE3getB8ne180100Ev, symObjAddr: 0x10D0, symBinAddr: 0x1000025B8, symSize: 0x18 }
  - { offset: 0xCC5E, size: 0x8, addend: 0x0, symName: __ZNSt3__110__function6__funcIPFdRKdENS_9allocatorIS5_EES4_ED2Ev, symObjAddr: 0x10E8, symBinAddr: 0x1000025D0, symSize: 0x2C }
  - { offset: 0xCC8A, size: 0x8, addend: 0x0, symName: __ZNKSt3__110__function12__alloc_funcIPFdRKdENS_9allocatorIS5_EES4_E15__get_allocatorB8ne180100Ev, symObjAddr: 0x1114, symBinAddr: 0x1000025FC, symSize: 0x24 }
  - { offset: 0xCCB0, size: 0x8, addend: 0x0, symName: __ZNSt3__19allocatorINS_10__function6__funcIPFdRKdENS0_IS6_EES5_EEE8allocateB8ne180100Em, symObjAddr: 0x1138, symBinAddr: 0x100002620, symSize: 0x58 }
  - { offset: 0xCCF6, size: 0x8, addend: 0x0, symName: __ZNSt3__122__allocator_destructorINS_9allocatorINS_10__function6__funcIPFdRKdENS1_IS7_EES6_EEEEEC1B8ne180100ERSA_m, symObjAddr: 0x1190, symBinAddr: 0x100002678, symSize: 0x3C }
  - { offset: 0xCDDD, size: 0x8, addend: 0x0, symName: __ZNSt3__110unique_ptrINS_10__function6__funcIPFdRKdENS_9allocatorIS6_EES5_EENS_22__allocator_destructorINS7_IS9_EEEEEC1B8ne180100ILb1EvEEPS9_NS_16__dependent_typeINS_27__unique_ptr_deleter_sfinaeISC_EEXT_EE20__good_rval_ref_typeE, symObjAddr: 0x11CC, symBinAddr: 0x1000026B4, symSize: 0x3C }
  - { offset: 0xCE2E, size: 0x8, addend: 0x0, symName: __ZNKSt3__110unique_ptrINS_10__function6__funcIPFdRKdENS_9allocatorIS6_EES5_EENS_22__allocator_destructorINS7_IS9_EEEEE3getB8ne180100Ev, symObjAddr: 0x1208, symBinAddr: 0x1000026F0, symSize: 0x28 }
  - { offset: 0xCE54, size: 0x8, addend: 0x0, symName: __ZNKSt3__110__function12__alloc_funcIPFdRKdENS_9allocatorIS5_EES4_E8__targetB8ne180100Ev, symObjAddr: 0x1230, symBinAddr: 0x100002718, symSize: 0x24 }
  - { offset: 0xCE7A, size: 0x8, addend: 0x0, symName: __ZNSt3__110__function6__funcIPFdRKdENS_9allocatorIS5_EES4_EC1B8ne180100ERKS5_OS7_, symObjAddr: 0x1254, symBinAddr: 0x10000273C, symSize: 0x3C }
  - { offset: 0xCEC2, size: 0x8, addend: 0x0, symName: __ZNSt3__110unique_ptrINS_10__function6__funcIPFdRKdENS_9allocatorIS6_EES5_EENS_22__allocator_destructorINS7_IS9_EEEEE7releaseB8ne180100Ev, symObjAddr: 0x1290, symBinAddr: 0x100002778, symSize: 0x44 }
  - { offset: 0xCEF7, size: 0x8, addend: 0x0, symName: __ZNSt3__110unique_ptrINS_10__function6__funcIPFdRKdENS_9allocatorIS6_EES5_EENS_22__allocator_destructorINS7_IS9_EEEEED1B8ne180100Ev, symObjAddr: 0x12D4, symBinAddr: 0x1000027BC, symSize: 0x2C }
  - { offset: 0xCF21, size: 0x8, addend: 0x0, symName: __ZNKSt3__117__compressed_pairIPFdRKdENS_9allocatorIS4_EEE6secondB8ne180100Ev, symObjAddr: 0x1300, symBinAddr: 0x1000027E8, symSize: 0x24 }
  - { offset: 0xCF47, size: 0x8, addend: 0x0, symName: __ZNKSt3__122__compressed_pair_elemINS_9allocatorIPFdRKdEEELi1ELb1EE5__getB8ne180100Ev, symObjAddr: 0x1324, symBinAddr: 0x10000280C, symSize: 0x14 }
  - { offset: 0xCF78, size: 0x8, addend: 0x0, symName: __ZNSt3__116allocator_traitsINS_9allocatorINS_10__function6__funcIPFdRKdENS1_IS7_EES6_EEEEE8max_sizeB8ne180100ISA_vEEmRKSA_, symObjAddr: 0x1338, symBinAddr: 0x100002820, symSize: 0x24 }
  - { offset: 0xCFA6, size: 0x8, addend: 0x0, symName: __ZNKSt3__19allocatorINS_10__function6__funcIPFdRKdENS0_IS6_EES5_EEE8max_sizeB8ne180100Ev, symObjAddr: 0x13B8, symBinAddr: 0x1000028A0, symSize: 0x14 }
  - { offset: 0xCFCC, size: 0x8, addend: 0x0, symName: __ZNSt3__122__allocator_destructorINS_9allocatorINS_10__function6__funcIPFdRKdENS1_IS7_EES6_EEEEEC2B8ne180100ERSA_m, symObjAddr: 0x13F0, symBinAddr: 0x1000028D8, symSize: 0x2C }
  - { offset: 0xD012, size: 0x8, addend: 0x0, symName: __ZNSt3__110unique_ptrINS_10__function6__funcIPFdRKdENS_9allocatorIS6_EES5_EENS_22__allocator_destructorINS7_IS9_EEEEEC2B8ne180100ILb1EvEEPS9_NS_16__dependent_typeINS_27__unique_ptr_deleter_sfinaeISC_EEXT_EE20__good_rval_ref_typeE, symObjAddr: 0x141C, symBinAddr: 0x100002904, symSize: 0x48 }
  - { offset: 0xD063, size: 0x8, addend: 0x0, symName: __ZNSt3__117__compressed_pairIPNS_10__function6__funcIPFdRKdENS_9allocatorIS6_EES5_EENS_22__allocator_destructorINS7_IS9_EEEEEC1B8ne180100IRSA_SD_EEOT_OT0_, symObjAddr: 0x1464, symBinAddr: 0x10000294C, symSize: 0x3C }
  - { offset: 0xD0BB, size: 0x8, addend: 0x0, symName: __ZNSt3__117__compressed_pairIPNS_10__function6__funcIPFdRKdENS_9allocatorIS6_EES5_EENS_22__allocator_destructorINS7_IS9_EEEEEC2B8ne180100IRSA_SD_EEOT_OT0_, symObjAddr: 0x14B0, symBinAddr: 0x100002998, symSize: 0x48 }
  - { offset: 0xD113, size: 0x8, addend: 0x0, symName: __ZNSt3__122__compressed_pair_elemIPNS_10__function6__funcIPFdRKdENS_9allocatorIS6_EES5_EELi0ELb0EEC2B8ne180100IRSA_vEEOT_, symObjAddr: 0x14F8, symBinAddr: 0x1000029E0, symSize: 0x24 }
  - { offset: 0xD155, size: 0x8, addend: 0x0, symName: __ZNSt3__122__compressed_pair_elemINS_22__allocator_destructorINS_9allocatorINS_10__function6__funcIPFdRKdENS2_IS8_EES7_EEEEEELi1ELb0EEC2B8ne180100ISC_vEEOT_, symObjAddr: 0x151C, symBinAddr: 0x100002A04, symSize: 0x24 }
  - { offset: 0xD197, size: 0x8, addend: 0x0, symName: __ZNKSt3__117__compressed_pairIPNS_10__function6__funcIPFdRKdENS_9allocatorIS6_EES5_EENS_22__allocator_destructorINS7_IS9_EEEEE5firstB8ne180100Ev, symObjAddr: 0x1540, symBinAddr: 0x100002A28, symSize: 0x24 }
  - { offset: 0xD1BD, size: 0x8, addend: 0x0, symName: __ZNKSt3__122__compressed_pair_elemIPNS_10__function6__funcIPFdRKdENS_9allocatorIS6_EES5_EELi0ELb0EE5__getB8ne180100Ev, symObjAddr: 0x1564, symBinAddr: 0x100002A4C, symSize: 0x14 }
  - { offset: 0xD1E3, size: 0x8, addend: 0x0, symName: __ZNKSt3__117__compressed_pairIPFdRKdENS_9allocatorIS4_EEE5firstB8ne180100Ev, symObjAddr: 0x1578, symBinAddr: 0x100002A60, symSize: 0x24 }
  - { offset: 0xD209, size: 0x8, addend: 0x0, symName: __ZNKSt3__122__compressed_pair_elemIPFdRKdELi0ELb0EE5__getB8ne180100Ev, symObjAddr: 0x159C, symBinAddr: 0x100002A84, symSize: 0x14 }
  - { offset: 0xD22F, size: 0x8, addend: 0x0, symName: __ZNSt3__110__function6__funcIPFdRKdENS_9allocatorIS5_EES4_EC2B8ne180100ERKS5_OS7_, symObjAddr: 0x15B0, symBinAddr: 0x100002A98, symSize: 0x80 }
  - { offset: 0xD277, size: 0x8, addend: 0x0, symName: __ZNSt3__110__function12__alloc_funcIPFdRKdENS_9allocatorIS5_EES4_EC1B8ne180100ERKS5_OS7_, symObjAddr: 0x1630, symBinAddr: 0x100002B18, symSize: 0x3C }
  - { offset: 0xD2BD, size: 0x8, addend: 0x0, symName: __ZNSt3__110__function12__alloc_funcIPFdRKdENS_9allocatorIS5_EES4_EC2B8ne180100ERKS5_OS7_, symObjAddr: 0x166C, symBinAddr: 0x100002B54, symSize: 0x5C }
  - { offset: 0xD303, size: 0x8, addend: 0x0, symName: __ZNSt3__117__compressed_pairIPFdRKdENS_9allocatorIS4_EEEC1B8ne180100IJRKS4_EJOS6_EEENS_21piecewise_construct_tENS_5tupleIJDpT_EEENSD_IJDpT0_EEE, symObjAddr: 0x16F4, symBinAddr: 0x100002BDC, symSize: 0x3C }
  - { offset: 0xD36D, size: 0x8, addend: 0x0, symName: __ZNSt3__15tupleIJRKPFdRKdEEEC1B8ne180100INS_4_AndELi0EEES6_, symObjAddr: 0x1730, symBinAddr: 0x100002C18, symSize: 0x34 }
  - { offset: 0xD3B5, size: 0x8, addend: 0x0, symName: __ZNSt3__15tupleIJRKPFdRKdEEEC2B8ne180100INS_4_AndELi0EEES6_, symObjAddr: 0x1764, symBinAddr: 0x100002C4C, symSize: 0x34 }
  - { offset: 0xD3FD, size: 0x8, addend: 0x0, symName: __ZNSt3__112__tuple_implINS_15__tuple_indicesIJLm0EEEEJRKPFdRKdEEEC1B8ne180100IJLm0EEJS8_EJEJEJS8_EEENS1_IJXspT_EEEENS_13__tuple_typesIJDpT0_EEENS1_IJXspT1_EEEENSC_IJDpT2_EEEDpOT3_, symObjAddr: 0x1798, symBinAddr: 0x100002C80, symSize: 0x34 }
  - { offset: 0xD492, size: 0x8, addend: 0x0, symName: __ZNSt3__112__tuple_implINS_15__tuple_indicesIJLm0EEEEJRKPFdRKdEEEC2B8ne180100IJLm0EEJS8_EJEJEJS8_EEENS1_IJXspT_EEEENS_13__tuple_typesIJDpT0_EEENS1_IJXspT1_EEEENSC_IJDpT2_EEEDpOT3_, symObjAddr: 0x17CC, symBinAddr: 0x100002CB4, symSize: 0x34 }
  - { offset: 0xD527, size: 0x8, addend: 0x0, symName: __ZNSt3__112__tuple_leafILm0ERKPFdRKdELb0EEC2B8ne180100IS6_vEEOT_, symObjAddr: 0x1800, symBinAddr: 0x100002CE8, symSize: 0x20 }
  - { offset: 0xD56A, size: 0x8, addend: 0x0, symName: __ZNSt3__117__compressed_pairIPFdRKdENS_9allocatorIS4_EEEC2B8ne180100IJRKS4_EJOS6_EEENS_21piecewise_construct_tENS_5tupleIJDpT_EEENSD_IJDpT0_EEE, symObjAddr: 0x1820, symBinAddr: 0x100002D08, symSize: 0x54 }
  - { offset: 0xD5D4, size: 0x8, addend: 0x0, symName: __ZNSt3__122__compressed_pair_elemIPFdRKdELi0ELb0EEC2B8ne180100IJRKS4_EJLm0EEEENS_21piecewise_construct_tENS_5tupleIJDpT_EEENS_15__tuple_indicesIJXspT0_EEEE, symObjAddr: 0x1874, symBinAddr: 0x100002D5C, symSize: 0x44 }
  - { offset: 0xD637, size: 0x8, addend: 0x0, symName: __ZNSt3__112__tuple_leafILm0ERKPFdRKdELb0EE3getB8ne180100Ev, symObjAddr: 0x18DC, symBinAddr: 0x100002DC4, symSize: 0x18 }
  - { offset: 0xD65D, size: 0x8, addend: 0x0, symName: __ZNSt3__117__compressed_pairIPNS_10__function6__funcIPFdRKdENS_9allocatorIS6_EES5_EENS_22__allocator_destructorINS7_IS9_EEEEE5firstB8ne180100Ev, symObjAddr: 0x18F4, symBinAddr: 0x100002DDC, symSize: 0x24 }
  - { offset: 0xD683, size: 0x8, addend: 0x0, symName: __ZNSt3__122__compressed_pair_elemIPNS_10__function6__funcIPFdRKdENS_9allocatorIS6_EES5_EELi0ELb0EE5__getB8ne180100Ev, symObjAddr: 0x1918, symBinAddr: 0x100002E00, symSize: 0x14 }
  - { offset: 0xD6A9, size: 0x8, addend: 0x0, symName: __ZNSt3__110unique_ptrINS_10__function6__funcIPFdRKdENS_9allocatorIS6_EES5_EENS_22__allocator_destructorINS7_IS9_EEEEED2B8ne180100Ev, symObjAddr: 0x192C, symBinAddr: 0x100002E14, symSize: 0x30 }
  - { offset: 0xD6D3, size: 0x8, addend: 0x0, symName: __ZNSt3__110unique_ptrINS_10__function6__funcIPFdRKdENS_9allocatorIS6_EES5_EENS_22__allocator_destructorINS7_IS9_EEEEE5resetB8ne180100EPS9_, symObjAddr: 0x195C, symBinAddr: 0x100002E44, symSize: 0x78 }
  - { offset: 0xD717, size: 0x8, addend: 0x0, symName: __ZNSt3__117__compressed_pairIPNS_10__function6__funcIPFdRKdENS_9allocatorIS6_EES5_EENS_22__allocator_destructorINS7_IS9_EEEEE6secondB8ne180100Ev, symObjAddr: 0x19D4, symBinAddr: 0x100002EBC, symSize: 0x28 }
  - { offset: 0xD73D, size: 0x8, addend: 0x0, symName: __ZNSt3__122__allocator_destructorINS_9allocatorINS_10__function6__funcIPFdRKdENS1_IS7_EES6_EEEEEclB8ne180100EPS9_, symObjAddr: 0x19FC, symBinAddr: 0x100002EE4, symSize: 0x34 }
  - { offset: 0xD771, size: 0x8, addend: 0x0, symName: __ZNSt3__122__compressed_pair_elemINS_22__allocator_destructorINS_9allocatorINS_10__function6__funcIPFdRKdENS2_IS8_EES7_EEEEEELi1ELb0EE5__getB8ne180100Ev, symObjAddr: 0x1A30, symBinAddr: 0x100002F18, symSize: 0x14 }
  - { offset: 0xD797, size: 0x8, addend: 0x0, symName: __ZNSt3__116allocator_traitsINS_9allocatorINS_10__function6__funcIPFdRKdENS1_IS7_EES6_EEEEE10deallocateB8ne180100ERSA_PS9_m, symObjAddr: 0x1A44, symBinAddr: 0x100002F2C, symSize: 0x34 }
  - { offset: 0xD7D9, size: 0x8, addend: 0x0, symName: __ZNSt3__19allocatorINS_10__function6__funcIPFdRKdENS0_IS6_EES5_EEE10deallocateB8ne180100EPS8_m, symObjAddr: 0x1A78, symBinAddr: 0x100002F60, symSize: 0x40 }
  - { offset: 0xD81B, size: 0x8, addend: 0x0, symName: __ZNSt3__110__function6__funcIPFdRKdENS_9allocatorIS5_EES4_EC1B8ne180100ERKS5_RKS7_, symObjAddr: 0x1B34, symBinAddr: 0x10000301C, symSize: 0x3C }
  - { offset: 0xD863, size: 0x8, addend: 0x0, symName: __ZNSt3__110__function6__funcIPFdRKdENS_9allocatorIS5_EES4_EC2B8ne180100ERKS5_RKS7_, symObjAddr: 0x1B70, symBinAddr: 0x100003058, symSize: 0x80 }
  - { offset: 0xD8AB, size: 0x8, addend: 0x0, symName: __ZNSt3__110__function12__alloc_funcIPFdRKdENS_9allocatorIS5_EES4_EC1B8ne180100ERKS5_RKS7_, symObjAddr: 0x1BF0, symBinAddr: 0x1000030D8, symSize: 0x3C }
  - { offset: 0xD8F1, size: 0x8, addend: 0x0, symName: __ZNSt3__110__function12__alloc_funcIPFdRKdENS_9allocatorIS5_EES4_EC2B8ne180100ERKS5_RKS7_, symObjAddr: 0x1C2C, symBinAddr: 0x100003114, symSize: 0x5C }
  - { offset: 0xD937, size: 0x8, addend: 0x0, symName: __ZNSt3__117__compressed_pairIPFdRKdENS_9allocatorIS4_EEEC1B8ne180100IJRKS4_EJRKS6_EEENS_21piecewise_construct_tENS_5tupleIJDpT_EEENSE_IJDpT0_EEE, symObjAddr: 0x1CB4, symBinAddr: 0x10000319C, symSize: 0x3C }
  - { offset: 0xD9A1, size: 0x8, addend: 0x0, symName: __ZNSt3__15tupleIJRKNS_9allocatorIPFdRKdEEEEEC1B8ne180100INS_4_AndELi0EEES8_, symObjAddr: 0x1CF0, symBinAddr: 0x1000031D8, symSize: 0x34 }
  - { offset: 0xD9E9, size: 0x8, addend: 0x0, symName: __ZNSt3__15tupleIJRKNS_9allocatorIPFdRKdEEEEEC2B8ne180100INS_4_AndELi0EEES8_, symObjAddr: 0x1D24, symBinAddr: 0x10000320C, symSize: 0x34 }
  - { offset: 0xDA31, size: 0x8, addend: 0x0, symName: __ZNSt3__112__tuple_implINS_15__tuple_indicesIJLm0EEEEJRKNS_9allocatorIPFdRKdEEEEEC1B8ne180100IJLm0EEJSA_EJEJEJSA_EEENS1_IJXspT_EEEENS_13__tuple_typesIJDpT0_EEENS1_IJXspT1_EEEENSE_IJDpT2_EEEDpOT3_, symObjAddr: 0x1D58, symBinAddr: 0x100003240, symSize: 0x34 }
  - { offset: 0xDAC6, size: 0x8, addend: 0x0, symName: __ZNSt3__112__tuple_implINS_15__tuple_indicesIJLm0EEEEJRKNS_9allocatorIPFdRKdEEEEEC2B8ne180100IJLm0EEJSA_EJEJEJSA_EEENS1_IJXspT_EEEENS_13__tuple_typesIJDpT0_EEENS1_IJXspT1_EEEENSE_IJDpT2_EEEDpOT3_, symObjAddr: 0x1D8C, symBinAddr: 0x100003274, symSize: 0x34 }
  - { offset: 0xDB5B, size: 0x8, addend: 0x0, symName: __ZNSt3__112__tuple_leafILm0ERKNS_9allocatorIPFdRKdEEELb0EEC2B8ne180100IS8_vEEOT_, symObjAddr: 0x1DC0, symBinAddr: 0x1000032A8, symSize: 0x20 }
  - { offset: 0xDB9E, size: 0x8, addend: 0x0, symName: __ZNSt3__117__compressed_pairIPFdRKdENS_9allocatorIS4_EEEC2B8ne180100IJRKS4_EJRKS6_EEENS_21piecewise_construct_tENS_5tupleIJDpT_EEENSE_IJDpT0_EEE, symObjAddr: 0x1DE0, symBinAddr: 0x1000032C8, symSize: 0x54 }
  - { offset: 0xDC08, size: 0x8, addend: 0x0, symName: __ZNSt3__122__compressed_pair_elemINS_9allocatorIPFdRKdEEELi1ELb1EEC2B8ne180100IJRKS6_EJLm0EEEENS_21piecewise_construct_tENS_5tupleIJDpT_EEENS_15__tuple_indicesIJXspT0_EEEE, symObjAddr: 0x1E34, symBinAddr: 0x10000331C, symSize: 0x38 }
  - { offset: 0xDC6B, size: 0x8, addend: 0x0, symName: __ZNSt3__112__tuple_leafILm0ERKNS_9allocatorIPFdRKdEEELb0EE3getB8ne180100Ev, symObjAddr: 0x1E90, symBinAddr: 0x100003378, symSize: 0x18 }
  - { offset: 0xDC91, size: 0x8, addend: 0x0, symName: __ZNSt3__110__function12__alloc_funcIPFdRKdENS_9allocatorIS5_EES4_E7destroyB8ne180100Ev, symObjAddr: 0x1EA8, symBinAddr: 0x100003390, symSize: 0x10 }
  - { offset: 0xDCB7, size: 0x8, addend: 0x0, symName: __ZNSt3__110__function12__alloc_funcIPFdRKdENS_9allocatorIS5_EES4_EclB8ne180100ES3_, symObjAddr: 0x1EB8, symBinAddr: 0x1000033A0, symSize: 0x30 }
  - { offset: 0xDCEB, size: 0x8, addend: 0x0, symName: __ZNSt3__128__invoke_void_return_wrapperIdLb0EE6__callB8ne180100IJRPFdRKdES4_EEEdDpOT_, symObjAddr: 0x1EE8, symBinAddr: 0x1000033D0, symSize: 0x2C }
  - { offset: 0xDD2E, size: 0x8, addend: 0x0, symName: __ZNSt3__117__compressed_pairIPFdRKdENS_9allocatorIS4_EEE5firstB8ne180100Ev, symObjAddr: 0x1F14, symBinAddr: 0x1000033FC, symSize: 0x24 }
  - { offset: 0xDD54, size: 0x8, addend: 0x0, symName: __ZNSt3__122__compressed_pair_elemIPFdRKdELi0ELb0EE5__getB8ne180100Ev, symObjAddr: 0x1F68, symBinAddr: 0x100003450, symSize: 0x14 }
  - { offset: 0xDDAE, size: 0x8, addend: 0x0, symName: __ZNKSt9type_infoeqB8ne180100ERKS_, symObjAddr: 0x1F7C, symBinAddr: 0x100003464, symSize: 0xDC }
  - { offset: 0xDE4A, size: 0x8, addend: 0x0, symName: __ZNSt27__type_info_implementations30__non_unique_arm_rtti_bit_impl21__is_type_name_uniqueB8ne180100Em, symObjAddr: 0x2058, symBinAddr: 0x100003540, symSize: 0x20 }
  - { offset: 0xDE6E, size: 0x8, addend: 0x0, symName: __ZNSt3__110__function12__value_funcIFdRKdEE4swapB8ne180100ERS5_, symObjAddr: 0x2078, symBinAddr: 0x100003560, symSize: 0x328 }
  - { offset: 0xDEC7, size: 0x8, addend: 0x0, symName: __ZNSt3__110__function12__value_funcIFdRKdEE9__as_baseB8ne180100EPv, symObjAddr: 0x23A0, symBinAddr: 0x100003888, symSize: 0x14 }
  - { offset: 0xDEEB, size: 0x8, addend: 0x0, symName: __ZNSt3__111char_traitsIcE6lengthB8ne180100EPKc, symObjAddr: 0x25DC, symBinAddr: 0x100003AC4, symSize: 0x34 }
  - { offset: 0xDF31, size: 0x8, addend: 0x0, symName: __ZNKSt3__113basic_ostreamIcNS_11char_traitsIcEEE6sentrycvbB8ne180100Ev, symObjAddr: 0x2610, symBinAddr: 0x100003AF8, symSize: 0x1C }
  - { offset: 0xDF57, size: 0x8, addend: 0x0, symName: __ZNSt3__119ostreambuf_iteratorIcNS_11char_traitsIcEEEC1B8ne180100ERNS_13basic_ostreamIcS2_EE, symObjAddr: 0x286C, symBinAddr: 0x100003D54, symSize: 0x34 }
  - { offset: 0xDF8F, size: 0x8, addend: 0x0, symName: __ZNKSt3__18ios_base5flagsB8ne180100Ev, symObjAddr: 0x28A0, symBinAddr: 0x100003D88, symSize: 0x18 }
  - { offset: 0xDFB7, size: 0x8, addend: 0x0, symName: __ZNKSt3__19basic_iosIcNS_11char_traitsIcEEE4fillB8ne180100Ev, symObjAddr: 0x28B8, symBinAddr: 0x100003DA0, symSize: 0x64 }
  - { offset: 0xDFDF, size: 0x8, addend: 0x0, symName: __ZNKSt3__119ostreambuf_iteratorIcNS_11char_traitsIcEEE6failedB8ne180100Ev, symObjAddr: 0x291C, symBinAddr: 0x100003E04, symSize: 0x24 }
  - { offset: 0xE005, size: 0x8, addend: 0x0, symName: __ZNSt3__19basic_iosIcNS_11char_traitsIcEEE8setstateB8ne180100Ej, symObjAddr: 0x2940, symBinAddr: 0x100003E28, symSize: 0x2C }
  - { offset: 0xE03A, size: 0x8, addend: 0x0, symName: __ZNKSt3__18ios_base5widthB8ne180100Ev, symObjAddr: 0x296C, symBinAddr: 0x100003E54, symSize: 0x18 }
  - { offset: 0xE062, size: 0x8, addend: 0x0, symName: __ZNSt3__115basic_streambufIcNS_11char_traitsIcEEE5sputnB8ne180100EPKcl, symObjAddr: 0x2984, symBinAddr: 0x100003E6C, symSize: 0x3C }
  - { offset: 0xE0A4, size: 0x8, addend: 0x0, symName: __ZNSt3__112basic_stringIcNS_11char_traitsIcEENS_9allocatorIcEEEC1B8ne180100Emc, symObjAddr: 0x29C0, symBinAddr: 0x100003EA8, symSize: 0x3C }
  - { offset: 0xE0EC, size: 0x8, addend: 0x0, symName: __ZNKSt3__112basic_stringIcNS_11char_traitsIcEENS_9allocatorIcEEE4dataB8ne180100Ev, symObjAddr: 0x29FC, symBinAddr: 0x100003EE4, symSize: 0x28 }
  - { offset: 0xE112, size: 0x8, addend: 0x0, symName: __ZNSt3__18ios_base5widthB8ne180100El, symObjAddr: 0x2A24, symBinAddr: 0x100003F0C, symSize: 0x2C }
  - { offset: 0xE158, size: 0x8, addend: 0x0, symName: __ZNSt3__112basic_stringIcNS_11char_traitsIcEENS_9allocatorIcEEEC2B8ne180100Emc, symObjAddr: 0x2A50, symBinAddr: 0x100003F38, symSize: 0x4C }
  - { offset: 0xE1A6, size: 0x8, addend: 0x0, symName: __ZNSt3__117__compressed_pairINS_12basic_stringIcNS_11char_traitsIcEENS_9allocatorIcEEE5__repES5_EC1B8ne180100INS_18__default_init_tagESA_EEOT_OT0_, symObjAddr: 0x2A9C, symBinAddr: 0x100003F84, symSize: 0x3C }
  - { offset: 0xE1FE, size: 0x8, addend: 0x0, symName: __ZNSt3__117__compressed_pairINS_12basic_stringIcNS_11char_traitsIcEENS_9allocatorIcEEE5__repES5_EC2B8ne180100INS_18__default_init_tagESA_EEOT_OT0_, symObjAddr: 0x2AD8, symBinAddr: 0x100003FC0, symSize: 0x3C }
  - { offset: 0xE256, size: 0x8, addend: 0x0, symName: __ZNSt3__122__compressed_pair_elemINS_12basic_stringIcNS_11char_traitsIcEENS_9allocatorIcEEE5__repELi0ELb0EEC2B8ne180100ENS_18__default_init_tagE, symObjAddr: 0x2B14, symBinAddr: 0x100003FFC, symSize: 0x14 }
  - { offset: 0xE28A, size: 0x8, addend: 0x0, symName: __ZNSt3__122__compressed_pair_elemINS_9allocatorIcEELi1ELb1EEC2B8ne180100ENS_18__default_init_tagE, symObjAddr: 0x2B28, symBinAddr: 0x100004010, symSize: 0x2C }
  - { offset: 0xE2BE, size: 0x8, addend: 0x0, symName: __ZNSt3__19allocatorIcEC2B8ne180100Ev, symObjAddr: 0x2B54, symBinAddr: 0x10000403C, symSize: 0x2C }
  - { offset: 0xE2E8, size: 0x8, addend: 0x0, symName: __ZNSt3__116__non_trivial_ifILb1ENS_9allocatorIcEEEC2B8ne180100Ev, symObjAddr: 0x2B80, symBinAddr: 0x100004068, symSize: 0x14 }
  - { offset: 0xE312, size: 0x8, addend: 0x0, symName: __ZNKSt3__112basic_stringIcNS_11char_traitsIcEENS_9allocatorIcEEE13__get_pointerB8ne180100Ev, symObjAddr: 0x2BA8, symBinAddr: 0x100004090, symSize: 0x54 }
  - { offset: 0xE338, size: 0x8, addend: 0x0, symName: __ZNKSt3__112basic_stringIcNS_11char_traitsIcEENS_9allocatorIcEEE9__is_longB8ne180100Ev, symObjAddr: 0x2BFC, symBinAddr: 0x1000040E4, symSize: 0x38 }
  - { offset: 0xE35E, size: 0x8, addend: 0x0, symName: __ZNKSt3__112basic_stringIcNS_11char_traitsIcEENS_9allocatorIcEEE18__get_long_pointerB8ne180100Ev, symObjAddr: 0x2C34, symBinAddr: 0x10000411C, symSize: 0x28 }
  - { offset: 0xE384, size: 0x8, addend: 0x0, symName: __ZNKSt3__112basic_stringIcNS_11char_traitsIcEENS_9allocatorIcEEE19__get_short_pointerB8ne180100Ev, symObjAddr: 0x2C5C, symBinAddr: 0x100004144, symSize: 0x28 }
  - { offset: 0xE3AA, size: 0x8, addend: 0x0, symName: __ZNKSt3__117__compressed_pairINS_12basic_stringIcNS_11char_traitsIcEENS_9allocatorIcEEE5__repES5_E5firstB8ne180100Ev, symObjAddr: 0x2C84, symBinAddr: 0x10000416C, symSize: 0x24 }
  - { offset: 0xE3D0, size: 0x8, addend: 0x0, symName: __ZNKSt3__122__compressed_pair_elemINS_12basic_stringIcNS_11char_traitsIcEENS_9allocatorIcEEE5__repELi0ELb0EE5__getB8ne180100Ev, symObjAddr: 0x2CA8, symBinAddr: 0x100004190, symSize: 0x14 }
  - { offset: 0xE3F6, size: 0x8, addend: 0x0, symName: __ZNSt3__114pointer_traitsIPKcE10pointer_toB8ne180100ERS1_, symObjAddr: 0x2CBC, symBinAddr: 0x1000041A4, symSize: 0x14 }
  - { offset: 0xE419, size: 0x8, addend: 0x0, symName: __ZNSt3__119ostreambuf_iteratorIcNS_11char_traitsIcEEEC2B8ne180100ERNS_13basic_ostreamIcS2_EE, symObjAddr: 0x2CD0, symBinAddr: 0x1000041B8, symSize: 0x54 }
  - { offset: 0xE451, size: 0x8, addend: 0x0, symName: __ZNKSt3__19basic_iosIcNS_11char_traitsIcEEE5rdbufB8ne180100Ev, symObjAddr: 0x2D24, symBinAddr: 0x10000420C, symSize: 0x24 }
  - { offset: 0xE479, size: 0x8, addend: 0x0, symName: __ZNKSt3__18ios_base5rdbufB8ne180100Ev, symObjAddr: 0x2D48, symBinAddr: 0x100004230, symSize: 0x18 }
  - { offset: 0xE49F, size: 0x8, addend: 0x0, symName: __ZNSt3__111char_traitsIcE11eq_int_typeB8ne180100Eii, symObjAddr: 0x2D60, symBinAddr: 0x100004248, symSize: 0x28 }
  - { offset: 0xE4D2, size: 0x8, addend: 0x0, symName: __ZNSt3__111char_traitsIcE3eofB8ne180100Ev, symObjAddr: 0x2D88, symBinAddr: 0x100004270, symSize: 0x8 }
  - { offset: 0xE4E6, size: 0x8, addend: 0x0, symName: __ZNKSt3__19basic_iosIcNS_11char_traitsIcEEE5widenB8ne180100Ec, symObjAddr: 0x2D90, symBinAddr: 0x100004278, symSize: 0x84 }
  - { offset: 0xE566, size: 0x8, addend: 0x0, symName: __ZNKSt3__15ctypeIcE5widenB8ne180100Ec, symObjAddr: 0x2E40, symBinAddr: 0x100004328, symSize: 0x38 }
  - { offset: 0xE59B, size: 0x8, addend: 0x0, symName: __ZNSt3__18ios_base8setstateB8ne180100Ej, symObjAddr: 0x2E78, symBinAddr: 0x100004360, symSize: 0x34 }
  - { offset: 0xE5D2, size: 0x8, addend: 0x0, symName: __ZNKSt3__18functionIFdRKdEEclES2_, symObjAddr: 0x2ED0, symBinAddr: 0x1000043B8, symSize: 0x2C }
  - { offset: 0xE609, size: 0x8, addend: 0x0, symName: __ZNSt3__113basic_ostreamIcNS_11char_traitsIcEEElsB8ne180100EPFRS3_S4_E, symObjAddr: 0x2EFC, symBinAddr: 0x1000043E4, symSize: 0x2C }
  - { offset: 0xE63D, size: 0x8, addend: 0x0, symName: __ZNKSt3__110__function12__value_funcIFdRKdEEclB8ne180100ES3_, symObjAddr: 0x2F80, symBinAddr: 0x100004468, symSize: 0x58 }
  - { offset: 0xE6A6, size: 0x8, addend: 0x0, symName: __ZNSt3__117bad_function_callC1B8ne180100Ev, symObjAddr: 0x3010, symBinAddr: 0x1000044F8, symSize: 0x2C }
  - { offset: 0xE6D0, size: 0x8, addend: 0x0, symName: __ZNSt3__117bad_function_callD1Ev, symObjAddr: 0x303C, symBinAddr: 0x100004524, symSize: 0x2C }
  - { offset: 0xE6FA, size: 0x8, addend: 0x0, symName: __ZNSt3__117bad_function_callC2B8ne180100Ev, symObjAddr: 0x3068, symBinAddr: 0x100004550, symSize: 0x3C }
  - { offset: 0xE724, size: 0x8, addend: 0x0, symName: __ZNSt9exceptionC2B8ne180100Ev, symObjAddr: 0x30A4, symBinAddr: 0x10000458C, symSize: 0x24 }
  - { offset: 0xE74E, size: 0x8, addend: 0x0, symName: __ZNSt3__117bad_function_callD0Ev, symObjAddr: 0x30C8, symBinAddr: 0x1000045B0, symSize: 0x30 }
  - { offset: 0xE778, size: 0x8, addend: 0x0, symName: __ZNSt3__117bad_function_callD2Ev, symObjAddr: 0x30F8, symBinAddr: 0x1000045E0, symSize: 0x2C }
  - { offset: 0xE7A2, size: 0x8, addend: 0x0, symName: __ZNSt3__18functionIFdRKdEEC1I4CubevEET_, symObjAddr: 0x3124, symBinAddr: 0x10000460C, symSize: 0x2C }
  - { offset: 0xE7E7, size: 0x8, addend: 0x0, symName: __ZNSt3__18functionIFdRKdEEC2I4CubevEET_, symObjAddr: 0x3150, symBinAddr: 0x100004638, symSize: 0x30 }
  - { offset: 0xE82C, size: 0x8, addend: 0x0, symName: __ZNSt3__110__function12__value_funcIFdRKdEEC1B8ne180100I4CubeLi0EEEOT_, symObjAddr: 0x3180, symBinAddr: 0x100004668, symSize: 0x50 }
  - { offset: 0xE874, size: 0x8, addend: 0x0, symName: __ZNSt3__19allocatorI4CubeEC1B8ne180100Ev, symObjAddr: 0x31D0, symBinAddr: 0x1000046B8, symSize: 0x2C }
  - { offset: 0xE89E, size: 0x8, addend: 0x0, symName: __ZNSt3__110__function12__value_funcIFdRKdEEC1B8ne180100I4CubeNS_9allocatorIS7_EEEEOT_RKT0_, symObjAddr: 0x31FC, symBinAddr: 0x1000046E4, symSize: 0x3C }
  - { offset: 0xE8F8, size: 0x8, addend: 0x0, symName: __ZNSt3__19allocatorI4CubeEC2B8ne180100Ev, symObjAddr: 0x3238, symBinAddr: 0x100004720, symSize: 0x2C }
  - { offset: 0xE922, size: 0x8, addend: 0x0, symName: __ZNSt3__116__non_trivial_ifILb1ENS_9allocatorI4CubeEEEC2B8ne180100Ev, symObjAddr: 0x3264, symBinAddr: 0x10000474C, symSize: 0x14 }
  - { offset: 0xE94C, size: 0x8, addend: 0x0, symName: __ZNSt3__110__function12__value_funcIFdRKdEEC2B8ne180100I4CubeNS_9allocatorIS7_EEEEOT_RKT0_, symObjAddr: 0x3278, symBinAddr: 0x100004760, symSize: 0x94 }
  - { offset: 0xE9F9, size: 0x8, addend: 0x0, symName: __ZNSt3__19allocatorINS_10__function6__funcI4CubeNS0_IS3_EEFdRKdEEEEC1B8ne180100IS3_EERKNS0_IT_EE, symObjAddr: 0x3324, symBinAddr: 0x10000480C, symSize: 0x34 }
  - { offset: 0xEA3C, size: 0x8, addend: 0x0, symName: __ZNSt3__19allocatorI4CubeEC1B8ne180100INS_10__function6__funcIS1_S2_FdRKdEEEEERKNS0_IT_EE, symObjAddr: 0x3358, symBinAddr: 0x100004840, symSize: 0x34 }
  - { offset: 0xEA79, size: 0x8, addend: 0x0, symName: __ZNSt3__110__function6__funcI4CubeNS_9allocatorIS2_EEFdRKdEEC1B8ne180100EOS2_OS4_, symObjAddr: 0x338C, symBinAddr: 0x100004874, symSize: 0x3C }
  - { offset: 0xEAC1, size: 0x8, addend: 0x0, symName: __ZNSt3__19allocatorINS_10__function6__funcI4CubeNS0_IS3_EEFdRKdEEEEC2B8ne180100IS3_EERKNS0_IT_EE, symObjAddr: 0x33C8, symBinAddr: 0x1000048B0, symSize: 0x30 }
  - { offset: 0xEAFE, size: 0x8, addend: 0x0, symName: __ZNSt3__116__non_trivial_ifILb1ENS_9allocatorINS_10__function6__funcI4CubeNS1_IS4_EEFdRKdEEEEEEC2B8ne180100Ev, symObjAddr: 0x33F8, symBinAddr: 0x1000048E0, symSize: 0x14 }
  - { offset: 0xEB28, size: 0x8, addend: 0x0, symName: __ZNSt3__19allocatorI4CubeEC2B8ne180100INS_10__function6__funcIS1_S2_FdRKdEEEEERKNS0_IT_EE, symObjAddr: 0x340C, symBinAddr: 0x1000048F4, symSize: 0x30 }
  - { offset: 0xEB65, size: 0x8, addend: 0x0, symName: __ZNSt3__110__function6__funcI4CubeNS_9allocatorIS2_EEFdRKdEEC2B8ne180100EOS2_OS4_, symObjAddr: 0x343C, symBinAddr: 0x100004924, symSize: 0x80 }
  - { offset: 0xEBAD, size: 0x8, addend: 0x0, symName: __ZNSt3__110__function12__alloc_funcI4CubeNS_9allocatorIS2_EEFdRKdEEC1B8ne180100EOS2_OS4_, symObjAddr: 0x34BC, symBinAddr: 0x1000049A4, symSize: 0x3C }
  - { offset: 0xEBF3, size: 0x8, addend: 0x0, symName: __ZNSt3__110__function6__funcI4CubeNS_9allocatorIS2_EEFdRKdEED1Ev, symObjAddr: 0x34F8, symBinAddr: 0x1000049E0, symSize: 0x2C }
  - { offset: 0xEC1F, size: 0x8, addend: 0x0, symName: __ZNSt3__110__function6__funcI4CubeNS_9allocatorIS2_EEFdRKdEED0Ev, symObjAddr: 0x3524, symBinAddr: 0x100004A0C, symSize: 0x30 }
  - { offset: 0xEC4B, size: 0x8, addend: 0x0, symName: __ZNKSt3__110__function6__funcI4CubeNS_9allocatorIS2_EEFdRKdEE7__cloneEv, symObjAddr: 0x3554, symBinAddr: 0x100004A3C, symSize: 0xFC }
  - { offset: 0xEC9D, size: 0x8, addend: 0x0, symName: __ZNKSt3__110__function6__funcI4CubeNS_9allocatorIS2_EEFdRKdEE7__cloneEPNS0_6__baseIS7_EE, symObjAddr: 0x3650, symBinAddr: 0x100004B38, symSize: 0x58 }
  - { offset: 0xECD4, size: 0x8, addend: 0x0, symName: __ZNSt3__110__function6__funcI4CubeNS_9allocatorIS2_EEFdRKdEE7destroyEv, symObjAddr: 0x36A8, symBinAddr: 0x100004B90, symSize: 0x28 }
  - { offset: 0xECFC, size: 0x8, addend: 0x0, symName: __ZNSt3__110__function6__funcI4CubeNS_9allocatorIS2_EEFdRKdEE18destroy_deallocateEv, symObjAddr: 0x36D0, symBinAddr: 0x100004BB8, symSize: 0x58 }
  - { offset: 0xED3F, size: 0x8, addend: 0x0, symName: __ZNSt3__110__function6__funcI4CubeNS_9allocatorIS2_EEFdRKdEEclES6_, symObjAddr: 0x3728, symBinAddr: 0x100004C10, symSize: 0x30 }
  - { offset: 0xED76, size: 0x8, addend: 0x0, symName: __ZNKSt3__110__function6__funcI4CubeNS_9allocatorIS2_EEFdRKdEE6targetERKSt9type_info, symObjAddr: 0x3758, symBinAddr: 0x100004C40, symSize: 0x60 }
  - { offset: 0xEDAD, size: 0x8, addend: 0x0, symName: __ZNKSt3__110__function6__funcI4CubeNS_9allocatorIS2_EEFdRKdEE11target_typeEv, symObjAddr: 0x37B8, symBinAddr: 0x100004CA0, symSize: 0x18 }
  - { offset: 0xEDD5, size: 0x8, addend: 0x0, symName: __ZNSt3__110__function12__alloc_funcI4CubeNS_9allocatorIS2_EEFdRKdEEC2B8ne180100EOS2_OS4_, symObjAddr: 0x37D0, symBinAddr: 0x100004CB8, symSize: 0x5C }
  - { offset: 0xEE1B, size: 0x8, addend: 0x0, symName: __ZNSt3__117__compressed_pairI4CubeNS_9allocatorIS1_EEEC1B8ne180100IJOS1_EJOS3_EEENS_21piecewise_construct_tENS_5tupleIJDpT_EEENS9_IJDpT0_EEE, symObjAddr: 0x3884, symBinAddr: 0x100004D6C, symSize: 0x3C }
  - { offset: 0xEE85, size: 0x8, addend: 0x0, symName: __ZNSt3__15tupleIJO4CubeEEC1B8ne180100IJS1_ELi0EEEDpOT_, symObjAddr: 0x38C0, symBinAddr: 0x100004DA8, symSize: 0x34 }
  - { offset: 0xEECF, size: 0x8, addend: 0x0, symName: __ZNSt3__15tupleIJO4CubeEEC2B8ne180100IJS1_ELi0EEEDpOT_, symObjAddr: 0x38F4, symBinAddr: 0x100004DDC, symSize: 0x34 }
  - { offset: 0xEF19, size: 0x8, addend: 0x0, symName: __ZNSt3__112__tuple_implINS_15__tuple_indicesIJLm0EEEEJO4CubeEEC1B8ne180100IJLm0EEJS4_EJEJEJS3_EEENS1_IJXspT_EEEENS_13__tuple_typesIJDpT0_EEENS1_IJXspT1_EEEENS8_IJDpT2_EEEDpOT3_, symObjAddr: 0x3928, symBinAddr: 0x100004E10, symSize: 0x34 }
  - { offset: 0xEFAE, size: 0x8, addend: 0x0, symName: __ZNSt3__112__tuple_implINS_15__tuple_indicesIJLm0EEEEJO4CubeEEC2B8ne180100IJLm0EEJS4_EJEJEJS3_EEENS1_IJXspT_EEEENS_13__tuple_typesIJDpT0_EEENS1_IJXspT1_EEEENS8_IJDpT2_EEEDpOT3_, symObjAddr: 0x395C, symBinAddr: 0x100004E44, symSize: 0x34 }
  - { offset: 0xF043, size: 0x8, addend: 0x0, symName: __ZNSt3__112__tuple_leafILm0EO4CubeLb0EEC2B8ne180100IS1_vEEOT_, symObjAddr: 0x3990, symBinAddr: 0x100004E78, symSize: 0x20 }
  - { offset: 0xF086, size: 0x8, addend: 0x0, symName: __ZNSt3__15tupleIJONS_9allocatorI4CubeEEEEC1B8ne180100IJS3_ELi0EEEDpOT_, symObjAddr: 0x39B0, symBinAddr: 0x100004E98, symSize: 0x34 }
  - { offset: 0xF0D0, size: 0x8, addend: 0x0, symName: __ZNSt3__15tupleIJONS_9allocatorI4CubeEEEEC2B8ne180100IJS3_ELi0EEEDpOT_, symObjAddr: 0x39E4, symBinAddr: 0x100004ECC, symSize: 0x34 }
  - { offset: 0xF11A, size: 0x8, addend: 0x0, symName: __ZNSt3__112__tuple_implINS_15__tuple_indicesIJLm0EEEEJONS_9allocatorI4CubeEEEEC1B8ne180100IJLm0EEJS6_EJEJEJS5_EEENS1_IJXspT_EEEENS_13__tuple_typesIJDpT0_EEENS1_IJXspT1_EEEENSA_IJDpT2_EEEDpOT3_, symObjAddr: 0x3A18, symBinAddr: 0x100004F00, symSize: 0x34 }
  - { offset: 0xF1AF, size: 0x8, addend: 0x0, symName: __ZNSt3__112__tuple_implINS_15__tuple_indicesIJLm0EEEEJONS_9allocatorI4CubeEEEEC2B8ne180100IJLm0EEJS6_EJEJEJS5_EEENS1_IJXspT_EEEENS_13__tuple_typesIJDpT0_EEENS1_IJXspT1_EEEENSA_IJDpT2_EEEDpOT3_, symObjAddr: 0x3A4C, symBinAddr: 0x100004F34, symSize: 0x34 }
  - { offset: 0xF244, size: 0x8, addend: 0x0, symName: __ZNSt3__112__tuple_leafILm0EONS_9allocatorI4CubeEELb0EEC2B8ne180100IS3_vEEOT_, symObjAddr: 0x3A80, symBinAddr: 0x100004F68, symSize: 0x20 }
  - { offset: 0xF287, size: 0x8, addend: 0x0, symName: __ZNSt3__117__compressed_pairI4CubeNS_9allocatorIS1_EEEC2B8ne180100IJOS1_EJOS3_EEENS_21piecewise_construct_tENS_5tupleIJDpT_EEENS9_IJDpT0_EEE, symObjAddr: 0x3AA0, symBinAddr: 0x100004F88, symSize: 0x54 }
  - { offset: 0xF2F1, size: 0x8, addend: 0x0, symName: __ZNSt3__122__compressed_pair_elemI4CubeLi0ELb1EEC2B8ne180100IJOS1_EJLm0EEEENS_21piecewise_construct_tENS_5tupleIJDpT_EEENS_15__tuple_indicesIJXspT0_EEEE, symObjAddr: 0x3AF4, symBinAddr: 0x100004FDC, symSize: 0x38 }
  - { offset: 0xF354, size: 0x8, addend: 0x0, symName: __ZNSt3__122__compressed_pair_elemINS_9allocatorI4CubeEELi1ELb1EEC2B8ne180100IJOS3_EJLm0EEEENS_21piecewise_construct_tENS_5tupleIJDpT_EEENS_15__tuple_indicesIJXspT0_EEEE, symObjAddr: 0x3B2C, symBinAddr: 0x100005014, symSize: 0x38 }
  - { offset: 0xF3B7, size: 0x8, addend: 0x0, symName: __ZNSt3__112__tuple_leafILm0EO4CubeLb0EE3getB8ne180100Ev, symObjAddr: 0x3B88, symBinAddr: 0x100005070, symSize: 0x18 }
  - { offset: 0xF3DD, size: 0x8, addend: 0x0, symName: __ZNSt3__112__tuple_leafILm0EONS_9allocatorI4CubeEELb0EE3getB8ne180100Ev, symObjAddr: 0x3BC4, symBinAddr: 0x1000050AC, symSize: 0x18 }
  - { offset: 0xF403, size: 0x8, addend: 0x0, symName: __ZNSt3__110__function6__funcI4CubeNS_9allocatorIS2_EEFdRKdEED2Ev, symObjAddr: 0x3BDC, symBinAddr: 0x1000050C4, symSize: 0x2C }
  - { offset: 0xF42F, size: 0x8, addend: 0x0, symName: __ZNKSt3__110__function12__alloc_funcI4CubeNS_9allocatorIS2_EEFdRKdEE15__get_allocatorB8ne180100Ev, symObjAddr: 0x3C08, symBinAddr: 0x1000050F0, symSize: 0x24 }
  - { offset: 0xF455, size: 0x8, addend: 0x0, symName: __ZNSt3__19allocatorINS_10__function6__funcI4CubeNS0_IS3_EEFdRKdEEEE8allocateB8ne180100Em, symObjAddr: 0x3C2C, symBinAddr: 0x100005114, symSize: 0x58 }
  - { offset: 0xF49B, size: 0x8, addend: 0x0, symName: __ZNSt3__122__allocator_destructorINS_9allocatorINS_10__function6__funcI4CubeNS1_IS4_EEFdRKdEEEEEEC1B8ne180100ERSA_m, symObjAddr: 0x3C84, symBinAddr: 0x10000516C, symSize: 0x3C }
  - { offset: 0xF582, size: 0x8, addend: 0x0, symName: __ZNSt3__110unique_ptrINS_10__function6__funcI4CubeNS_9allocatorIS3_EEFdRKdEEENS_22__allocator_destructorINS4_IS9_EEEEEC1B8ne180100ILb1EvEEPS9_NS_16__dependent_typeINS_27__unique_ptr_deleter_sfinaeISC_EEXT_EE20__good_rval_ref_typeE, symObjAddr: 0x3CC0, symBinAddr: 0x1000051A8, symSize: 0x3C }
  - { offset: 0xF5D3, size: 0x8, addend: 0x0, symName: __ZNKSt3__110unique_ptrINS_10__function6__funcI4CubeNS_9allocatorIS3_EEFdRKdEEENS_22__allocator_destructorINS4_IS9_EEEEE3getB8ne180100Ev, symObjAddr: 0x3CFC, symBinAddr: 0x1000051E4, symSize: 0x28 }
  - { offset: 0xF5F9, size: 0x8, addend: 0x0, symName: __ZNKSt3__110__function12__alloc_funcI4CubeNS_9allocatorIS2_EEFdRKdEE8__targetB8ne180100Ev, symObjAddr: 0x3D24, symBinAddr: 0x10000520C, symSize: 0x24 }
  - { offset: 0xF61F, size: 0x8, addend: 0x0, symName: __ZNSt3__110__function6__funcI4CubeNS_9allocatorIS2_EEFdRKdEEC1B8ne180100ERKS2_OS4_, symObjAddr: 0x3D48, symBinAddr: 0x100005230, symSize: 0x3C }
  - { offset: 0xF667, size: 0x8, addend: 0x0, symName: __ZNSt3__110unique_ptrINS_10__function6__funcI4CubeNS_9allocatorIS3_EEFdRKdEEENS_22__allocator_destructorINS4_IS9_EEEEE7releaseB8ne180100Ev, symObjAddr: 0x3D84, symBinAddr: 0x10000526C, symSize: 0x44 }
  - { offset: 0xF69C, size: 0x8, addend: 0x0, symName: __ZNSt3__110unique_ptrINS_10__function6__funcI4CubeNS_9allocatorIS3_EEFdRKdEEENS_22__allocator_destructorINS4_IS9_EEEEED1B8ne180100Ev, symObjAddr: 0x3DC8, symBinAddr: 0x1000052B0, symSize: 0x2C }
  - { offset: 0xF6C6, size: 0x8, addend: 0x0, symName: __ZNKSt3__117__compressed_pairI4CubeNS_9allocatorIS1_EEE6secondB8ne180100Ev, symObjAddr: 0x3DF4, symBinAddr: 0x1000052DC, symSize: 0x24 }
  - { offset: 0xF6EC, size: 0x8, addend: 0x0, symName: __ZNKSt3__122__compressed_pair_elemINS_9allocatorI4CubeEELi1ELb1EE5__getB8ne180100Ev, symObjAddr: 0x3E18, symBinAddr: 0x100005300, symSize: 0x14 }
  - { offset: 0xF71D, size: 0x8, addend: 0x0, symName: __ZNSt3__116allocator_traitsINS_9allocatorINS_10__function6__funcI4CubeNS1_IS4_EEFdRKdEEEEEE8max_sizeB8ne180100ISA_vEEmRKSA_, symObjAddr: 0x3E2C, symBinAddr: 0x100005314, symSize: 0x24 }
  - { offset: 0xF74B, size: 0x8, addend: 0x0, symName: __ZNKSt3__19allocatorINS_10__function6__funcI4CubeNS0_IS3_EEFdRKdEEEE8max_sizeB8ne180100Ev, symObjAddr: 0x3E50, symBinAddr: 0x100005338, symSize: 0x14 }
  - { offset: 0xF771, size: 0x8, addend: 0x0, symName: __ZNSt3__122__allocator_destructorINS_9allocatorINS_10__function6__funcI4CubeNS1_IS4_EEFdRKdEEEEEEC2B8ne180100ERSA_m, symObjAddr: 0x3E64, symBinAddr: 0x10000534C, symSize: 0x2C }
  - { offset: 0xF7B7, size: 0x8, addend: 0x0, symName: __ZNSt3__110unique_ptrINS_10__function6__funcI4CubeNS_9allocatorIS3_EEFdRKdEEENS_22__allocator_destructorINS4_IS9_EEEEEC2B8ne180100ILb1EvEEPS9_NS_16__dependent_typeINS_27__unique_ptr_deleter_sfinaeISC_EEXT_EE20__good_rval_ref_typeE, symObjAddr: 0x3E90, symBinAddr: 0x100005378, symSize: 0x48 }
  - { offset: 0xF808, size: 0x8, addend: 0x0, symName: __ZNSt3__117__compressed_pairIPNS_10__function6__funcI4CubeNS_9allocatorIS3_EEFdRKdEEENS_22__allocator_destructorINS4_IS9_EEEEEC1B8ne180100IRSA_SD_EEOT_OT0_, symObjAddr: 0x3ED8, symBinAddr: 0x1000053C0, symSize: 0x3C }
  - { offset: 0xF860, size: 0x8, addend: 0x0, symName: __ZNSt3__117__compressed_pairIPNS_10__function6__funcI4CubeNS_9allocatorIS3_EEFdRKdEEENS_22__allocator_destructorINS4_IS9_EEEEEC2B8ne180100IRSA_SD_EEOT_OT0_, symObjAddr: 0x3F14, symBinAddr: 0x1000053FC, symSize: 0x48 }
  - { offset: 0xF8B8, size: 0x8, addend: 0x0, symName: __ZNSt3__122__compressed_pair_elemIPNS_10__function6__funcI4CubeNS_9allocatorIS3_EEFdRKdEEELi0ELb0EEC2B8ne180100IRSA_vEEOT_, symObjAddr: 0x3F5C, symBinAddr: 0x100005444, symSize: 0x24 }
  - { offset: 0xF8FA, size: 0x8, addend: 0x0, symName: __ZNSt3__122__compressed_pair_elemINS_22__allocator_destructorINS_9allocatorINS_10__function6__funcI4CubeNS2_IS5_EEFdRKdEEEEEEELi1ELb0EEC2B8ne180100ISC_vEEOT_, symObjAddr: 0x3F80, symBinAddr: 0x100005468, symSize: 0x24 }
  - { offset: 0xF93C, size: 0x8, addend: 0x0, symName: __ZNKSt3__117__compressed_pairIPNS_10__function6__funcI4CubeNS_9allocatorIS3_EEFdRKdEEENS_22__allocator_destructorINS4_IS9_EEEEE5firstB8ne180100Ev, symObjAddr: 0x3FA4, symBinAddr: 0x10000548C, symSize: 0x24 }
  - { offset: 0xF962, size: 0x8, addend: 0x0, symName: __ZNKSt3__122__compressed_pair_elemIPNS_10__function6__funcI4CubeNS_9allocatorIS3_EEFdRKdEEELi0ELb0EE5__getB8ne180100Ev, symObjAddr: 0x3FC8, symBinAddr: 0x1000054B0, symSize: 0x14 }
  - { offset: 0xF988, size: 0x8, addend: 0x0, symName: __ZNKSt3__117__compressed_pairI4CubeNS_9allocatorIS1_EEE5firstB8ne180100Ev, symObjAddr: 0x3FDC, symBinAddr: 0x1000054C4, symSize: 0x24 }
  - { offset: 0xF9AE, size: 0x8, addend: 0x0, symName: __ZNKSt3__122__compressed_pair_elemI4CubeLi0ELb1EE5__getB8ne180100Ev, symObjAddr: 0x4000, symBinAddr: 0x1000054E8, symSize: 0x14 }
  - { offset: 0xF9D4, size: 0x8, addend: 0x0, symName: __ZNSt3__110__function6__funcI4CubeNS_9allocatorIS2_EEFdRKdEEC2B8ne180100ERKS2_OS4_, symObjAddr: 0x4014, symBinAddr: 0x1000054FC, symSize: 0x80 }
  - { offset: 0xFA1C, size: 0x8, addend: 0x0, symName: __ZNSt3__110__function12__alloc_funcI4CubeNS_9allocatorIS2_EEFdRKdEEC1B8ne180100ERKS2_OS4_, symObjAddr: 0x4094, symBinAddr: 0x10000557C, symSize: 0x3C }
  - { offset: 0xFA62, size: 0x8, addend: 0x0, symName: __ZNSt3__110__function12__alloc_funcI4CubeNS_9allocatorIS2_EEFdRKdEEC2B8ne180100ERKS2_OS4_, symObjAddr: 0x40D0, symBinAddr: 0x1000055B8, symSize: 0x5C }
  - { offset: 0xFAA8, size: 0x8, addend: 0x0, symName: __ZNSt3__117__compressed_pairI4CubeNS_9allocatorIS1_EEEC1B8ne180100IJRKS1_EJOS3_EEENS_21piecewise_construct_tENS_5tupleIJDpT_EEENSA_IJDpT0_EEE, symObjAddr: 0x4158, symBinAddr: 0x100005640, symSize: 0x3C }
  - { offset: 0xFB12, size: 0x8, addend: 0x0, symName: __ZNSt3__15tupleIJRK4CubeEEC1B8ne180100INS_4_AndELi0EEES3_, symObjAddr: 0x4194, symBinAddr: 0x10000567C, symSize: 0x34 }
  - { offset: 0xFB5A, size: 0x8, addend: 0x0, symName: __ZNSt3__15tupleIJRK4CubeEEC2B8ne180100INS_4_AndELi0EEES3_, symObjAddr: 0x41C8, symBinAddr: 0x1000056B0, symSize: 0x34 }
  - { offset: 0xFBA2, size: 0x8, addend: 0x0, symName: __ZNSt3__112__tuple_implINS_15__tuple_indicesIJLm0EEEEJRK4CubeEEC1B8ne180100IJLm0EEJS5_EJEJEJS5_EEENS1_IJXspT_EEEENS_13__tuple_typesIJDpT0_EEENS1_IJXspT1_EEEENS9_IJDpT2_EEEDpOT3_, symObjAddr: 0x41FC, symBinAddr: 0x1000056E4, symSize: 0x34 }
  - { offset: 0xFC37, size: 0x8, addend: 0x0, symName: __ZNSt3__112__tuple_implINS_15__tuple_indicesIJLm0EEEEJRK4CubeEEC2B8ne180100IJLm0EEJS5_EJEJEJS5_EEENS1_IJXspT_EEEENS_13__tuple_typesIJDpT0_EEENS1_IJXspT1_EEEENS9_IJDpT2_EEEDpOT3_, symObjAddr: 0x4230, symBinAddr: 0x100005718, symSize: 0x34 }
  - { offset: 0xFCCC, size: 0x8, addend: 0x0, symName: __ZNSt3__112__tuple_leafILm0ERK4CubeLb0EEC2B8ne180100IS3_vEEOT_, symObjAddr: 0x4264, symBinAddr: 0x10000574C, symSize: 0x20 }
  - { offset: 0xFD0F, size: 0x8, addend: 0x0, symName: __ZNSt3__117__compressed_pairI4CubeNS_9allocatorIS1_EEEC2B8ne180100IJRKS1_EJOS3_EEENS_21piecewise_construct_tENS_5tupleIJDpT_EEENSA_IJDpT0_EEE, symObjAddr: 0x4284, symBinAddr: 0x10000576C, symSize: 0x54 }
  - { offset: 0xFD79, size: 0x8, addend: 0x0, symName: __ZNSt3__122__compressed_pair_elemI4CubeLi0ELb1EEC2B8ne180100IJRKS1_EJLm0EEEENS_21piecewise_construct_tENS_5tupleIJDpT_EEENS_15__tuple_indicesIJXspT0_EEEE, symObjAddr: 0x42D8, symBinAddr: 0x1000057C0, symSize: 0x38 }
  - { offset: 0xFDDC, size: 0x8, addend: 0x0, symName: __ZNSt3__112__tuple_leafILm0ERK4CubeLb0EE3getB8ne180100Ev, symObjAddr: 0x4334, symBinAddr: 0x10000581C, symSize: 0x18 }
  - { offset: 0xFE02, size: 0x8, addend: 0x0, symName: __ZNSt3__117__compressed_pairIPNS_10__function6__funcI4CubeNS_9allocatorIS3_EEFdRKdEEENS_22__allocator_destructorINS4_IS9_EEEEE5firstB8ne180100Ev, symObjAddr: 0x434C, symBinAddr: 0x100005834, symSize: 0x24 }
  - { offset: 0xFE28, size: 0x8, addend: 0x0, symName: __ZNSt3__122__compressed_pair_elemIPNS_10__function6__funcI4CubeNS_9allocatorIS3_EEFdRKdEEELi0ELb0EE5__getB8ne180100Ev, symObjAddr: 0x4370, symBinAddr: 0x100005858, symSize: 0x14 }
  - { offset: 0xFE4E, size: 0x8, addend: 0x0, symName: __ZNSt3__110unique_ptrINS_10__function6__funcI4CubeNS_9allocatorIS3_EEFdRKdEEENS_22__allocator_destructorINS4_IS9_EEEEED2B8ne180100Ev, symObjAddr: 0x4384, symBinAddr: 0x10000586C, symSize: 0x30 }
  - { offset: 0xFE78, size: 0x8, addend: 0x0, symName: __ZNSt3__110unique_ptrINS_10__function6__funcI4CubeNS_9allocatorIS3_EEFdRKdEEENS_22__allocator_destructorINS4_IS9_EEEEE5resetB8ne180100EPS9_, symObjAddr: 0x43B4, symBinAddr: 0x10000589C, symSize: 0x78 }
  - { offset: 0xFEBC, size: 0x8, addend: 0x0, symName: __ZNSt3__117__compressed_pairIPNS_10__function6__funcI4CubeNS_9allocatorIS3_EEFdRKdEEENS_22__allocator_destructorINS4_IS9_EEEEE6secondB8ne180100Ev, symObjAddr: 0x442C, symBinAddr: 0x100005914, symSize: 0x28 }
  - { offset: 0xFEE2, size: 0x8, addend: 0x0, symName: __ZNSt3__122__allocator_destructorINS_9allocatorINS_10__function6__funcI4CubeNS1_IS4_EEFdRKdEEEEEEclB8ne180100EPS9_, symObjAddr: 0x4454, symBinAddr: 0x10000593C, symSize: 0x34 }
  - { offset: 0xFF16, size: 0x8, addend: 0x0, symName: __ZNSt3__122__compressed_pair_elemINS_22__allocator_destructorINS_9allocatorINS_10__function6__funcI4CubeNS2_IS5_EEFdRKdEEEEEEELi1ELb0EE5__getB8ne180100Ev, symObjAddr: 0x4488, symBinAddr: 0x100005970, symSize: 0x14 }
  - { offset: 0xFF3C, size: 0x8, addend: 0x0, symName: __ZNSt3__116allocator_traitsINS_9allocatorINS_10__function6__funcI4CubeNS1_IS4_EEFdRKdEEEEEE10deallocateB8ne180100ERSA_PS9_m, symObjAddr: 0x449C, symBinAddr: 0x100005984, symSize: 0x34 }
  - { offset: 0xFF7E, size: 0x8, addend: 0x0, symName: __ZNSt3__19allocatorINS_10__function6__funcI4CubeNS0_IS3_EEFdRKdEEEE10deallocateB8ne180100EPS8_m, symObjAddr: 0x44D0, symBinAddr: 0x1000059B8, symSize: 0x40 }
  - { offset: 0xFFC0, size: 0x8, addend: 0x0, symName: __ZNSt3__110__function6__funcI4CubeNS_9allocatorIS2_EEFdRKdEEC1B8ne180100ERKS2_RKS4_, symObjAddr: 0x4510, symBinAddr: 0x1000059F8, symSize: 0x3C }
  - { offset: 0x10008, size: 0x8, addend: 0x0, symName: __ZNSt3__110__function6__funcI4CubeNS_9allocatorIS2_EEFdRKdEEC2B8ne180100ERKS2_RKS4_, symObjAddr: 0x454C, symBinAddr: 0x100005A34, symSize: 0x80 }
  - { offset: 0x10050, size: 0x8, addend: 0x0, symName: __ZNSt3__110__function12__alloc_funcI4CubeNS_9allocatorIS2_EEFdRKdEEC1B8ne180100ERKS2_RKS4_, symObjAddr: 0x45CC, symBinAddr: 0x100005AB4, symSize: 0x3C }
  - { offset: 0x10096, size: 0x8, addend: 0x0, symName: __ZNSt3__110__function12__alloc_funcI4CubeNS_9allocatorIS2_EEFdRKdEEC2B8ne180100ERKS2_RKS4_, symObjAddr: 0x4608, symBinAddr: 0x100005AF0, symSize: 0x5C }
  - { offset: 0x100DC, size: 0x8, addend: 0x0, symName: __ZNSt3__117__compressed_pairI4CubeNS_9allocatorIS1_EEEC1B8ne180100IJRKS1_EJRKS3_EEENS_21piecewise_construct_tENS_5tupleIJDpT_EEENSB_IJDpT0_EEE, symObjAddr: 0x4690, symBinAddr: 0x100005B78, symSize: 0x3C }
  - { offset: 0x10146, size: 0x8, addend: 0x0, symName: __ZNSt3__15tupleIJRKNS_9allocatorI4CubeEEEEC1B8ne180100INS_4_AndELi0EEES5_, symObjAddr: 0x46CC, symBinAddr: 0x100005BB4, symSize: 0x34 }
  - { offset: 0x1018E, size: 0x8, addend: 0x0, symName: __ZNSt3__15tupleIJRKNS_9allocatorI4CubeEEEEC2B8ne180100INS_4_AndELi0EEES5_, symObjAddr: 0x4700, symBinAddr: 0x100005BE8, symSize: 0x34 }
  - { offset: 0x101D6, size: 0x8, addend: 0x0, symName: __ZNSt3__112__tuple_implINS_15__tuple_indicesIJLm0EEEEJRKNS_9allocatorI4CubeEEEEC1B8ne180100IJLm0EEJS7_EJEJEJS7_EEENS1_IJXspT_EEEENS_13__tuple_typesIJDpT0_EEENS1_IJXspT1_EEEENSB_IJDpT2_EEEDpOT3_, symObjAddr: 0x4734, symBinAddr: 0x100005C1C, symSize: 0x34 }
  - { offset: 0x1026B, size: 0x8, addend: 0x0, symName: __ZNSt3__112__tuple_implINS_15__tuple_indicesIJLm0EEEEJRKNS_9allocatorI4CubeEEEEC2B8ne180100IJLm0EEJS7_EJEJEJS7_EEENS1_IJXspT_EEEENS_13__tuple_typesIJDpT0_EEENS1_IJXspT1_EEEENSB_IJDpT2_EEEDpOT3_, symObjAddr: 0x4768, symBinAddr: 0x100005C50, symSize: 0x34 }
  - { offset: 0x10300, size: 0x8, addend: 0x0, symName: __ZNSt3__112__tuple_leafILm0ERKNS_9allocatorI4CubeEELb0EEC2B8ne180100IS5_vEEOT_, symObjAddr: 0x479C, symBinAddr: 0x100005C84, symSize: 0x20 }
  - { offset: 0x10343, size: 0x8, addend: 0x0, symName: __ZNSt3__117__compressed_pairI4CubeNS_9allocatorIS1_EEEC2B8ne180100IJRKS1_EJRKS3_EEENS_21piecewise_construct_tENS_5tupleIJDpT_EEENSB_IJDpT0_EEE, symObjAddr: 0x47BC, symBinAddr: 0x100005CA4, symSize: 0x54 }
  - { offset: 0x103AD, size: 0x8, addend: 0x0, symName: __ZNSt3__122__compressed_pair_elemINS_9allocatorI4CubeEELi1ELb1EEC2B8ne180100IJRKS3_EJLm0EEEENS_21piecewise_construct_tENS_5tupleIJDpT_EEENS_15__tuple_indicesIJXspT0_EEEE, symObjAddr: 0x4810, symBinAddr: 0x100005CF8, symSize: 0x38 }
  - { offset: 0x10410, size: 0x8, addend: 0x0, symName: __ZNSt3__112__tuple_leafILm0ERKNS_9allocatorI4CubeEELb0EE3getB8ne180100Ev, symObjAddr: 0x486C, symBinAddr: 0x100005D54, symSize: 0x18 }
  - { offset: 0x10436, size: 0x8, addend: 0x0, symName: __ZNSt3__110__function12__alloc_funcI4CubeNS_9allocatorIS2_EEFdRKdEE7destroyB8ne180100Ev, symObjAddr: 0x4884, symBinAddr: 0x100005D6C, symSize: 0x10 }
  - { offset: 0x1045C, size: 0x8, addend: 0x0, symName: __ZNSt3__110__function12__alloc_funcI4CubeNS_9allocatorIS2_EEFdRKdEEclB8ne180100ES6_, symObjAddr: 0x4894, symBinAddr: 0x100005D7C, symSize: 0x30 }
  - { offset: 0x10490, size: 0x8, addend: 0x0, symName: __ZNSt3__128__invoke_void_return_wrapperIdLb0EE6__callB8ne180100IJR4CubeRKdEEEdDpOT_, symObjAddr: 0x48C4, symBinAddr: 0x100005DAC, symSize: 0x2C }
  - { offset: 0x104D3, size: 0x8, addend: 0x0, symName: __ZNSt3__117__compressed_pairI4CubeNS_9allocatorIS1_EEE5firstB8ne180100Ev, symObjAddr: 0x48F0, symBinAddr: 0x100005DD8, symSize: 0x24 }
  - { offset: 0x104F9, size: 0x8, addend: 0x0, symName: __ZN4CubeclERKd, symObjAddr: 0x4940, symBinAddr: 0x100005E28, symSize: 0x34 }
  - { offset: 0x1052D, size: 0x8, addend: 0x0, symName: __ZNSt3__122__compressed_pair_elemI4CubeLi0ELb1EE5__getB8ne180100Ev, symObjAddr: 0x4974, symBinAddr: 0x100005E5C, symSize: 0x14 }
  - { offset: 0x10553, size: 0x8, addend: 0x0, symName: '__ZNSt3__18functionIFdRKdEEC1IZ4mainE3$_0vEET_', symObjAddr: 0x4988, symBinAddr: 0x100005E70, symSize: 0x2C }
  - { offset: 0x10598, size: 0x8, addend: 0x0, symName: '__ZNSt3__18functionIFdRKdEEC2IZ4mainE3$_0vEET_', symObjAddr: 0x49B4, symBinAddr: 0x100005E9C, symSize: 0x30 }
  - { offset: 0x105DD, size: 0x8, addend: 0x0, symName: '__ZNSt3__110__function12__value_funcIFdRKdEEC1B8ne180100IZ4mainE3$_0Li0EEEOT_', symObjAddr: 0x49E4, symBinAddr: 0x100005ECC, symSize: 0x50 }
  - { offset: 0x10625, size: 0x8, addend: 0x0, symName: '__ZNSt3__19allocatorIZ4mainE3$_0EC1B8ne180100Ev', symObjAddr: 0x4A34, symBinAddr: 0x100005F1C, symSize: 0x2C }
  - { offset: 0x1064F, size: 0x8, addend: 0x0, symName: '__ZNSt3__110__function12__value_funcIFdRKdEEC1B8ne180100IZ4mainE3$_0NS_9allocatorIS7_EEEEOT_RKT0_', symObjAddr: 0x4A60, symBinAddr: 0x100005F48, symSize: 0x3C }
  - { offset: 0x106A9, size: 0x8, addend: 0x0, symName: '__ZNSt3__19allocatorIZ4mainE3$_0EC2B8ne180100Ev', symObjAddr: 0x4A9C, symBinAddr: 0x100005F84, symSize: 0x2C }
  - { offset: 0x106D3, size: 0x8, addend: 0x0, symName: '__ZNSt3__116__non_trivial_ifILb1ENS_9allocatorIZ4mainE3$_0EEEC2B8ne180100Ev', symObjAddr: 0x4AC8, symBinAddr: 0x100005FB0, symSize: 0x14 }
  - { offset: 0x106FD, size: 0x8, addend: 0x0, symName: '__ZNSt3__110__function12__value_funcIFdRKdEEC2B8ne180100IZ4mainE3$_0NS_9allocatorIS7_EEEEOT_RKT0_', symObjAddr: 0x4ADC, symBinAddr: 0x100005FC4, symSize: 0x94 }
  - { offset: 0x107AA, size: 0x8, addend: 0x0, symName: '__ZNSt3__19allocatorINS_10__function6__funcIZ4mainE3$_0NS0_IS3_EEFdRKdEEEEC1B8ne180100IS3_EERKNS0_IT_EE', symObjAddr: 0x4B88, symBinAddr: 0x100006070, symSize: 0x34 }
  - { offset: 0x107ED, size: 0x8, addend: 0x0, symName: '__ZNSt3__19allocatorIZ4mainE3$_0EC1B8ne180100INS_10__function6__funcIS1_S2_FdRKdEEEEERKNS0_IT_EE', symObjAddr: 0x4BBC, symBinAddr: 0x1000060A4, symSize: 0x34 }
  - { offset: 0x1082A, size: 0x8, addend: 0x0, symName: '__ZNSt3__110__function6__funcIZ4mainE3$_0NS_9allocatorIS2_EEFdRKdEEC1B8ne180100EOS2_OS4_', symObjAddr: 0x4BF0, symBinAddr: 0x1000060D8, symSize: 0x3C }
  - { offset: 0x10872, size: 0x8, addend: 0x0, symName: '__ZNSt3__19allocatorINS_10__function6__funcIZ4mainE3$_0NS0_IS3_EEFdRKdEEEEC2B8ne180100IS3_EERKNS0_IT_EE', symObjAddr: 0x4C2C, symBinAddr: 0x100006114, symSize: 0x30 }
  - { offset: 0x108AF, size: 0x8, addend: 0x0, symName: '__ZNSt3__116__non_trivial_ifILb1ENS_9allocatorINS_10__function6__funcIZ4mainE3$_0NS1_IS4_EEFdRKdEEEEEEC2B8ne180100Ev', symObjAddr: 0x4C5C, symBinAddr: 0x100006144, symSize: 0x14 }
  - { offset: 0x108D9, size: 0x8, addend: 0x0, symName: '__ZNSt3__19allocatorIZ4mainE3$_0EC2B8ne180100INS_10__function6__funcIS1_S2_FdRKdEEEEERKNS0_IT_EE', symObjAddr: 0x4C70, symBinAddr: 0x100006158, symSize: 0x30 }
  - { offset: 0x10916, size: 0x8, addend: 0x0, symName: '__ZNSt3__110__function6__funcIZ4mainE3$_0NS_9allocatorIS2_EEFdRKdEEC2B8ne180100EOS2_OS4_', symObjAddr: 0x4CA0, symBinAddr: 0x100006188, symSize: 0x80 }
  - { offset: 0x1095E, size: 0x8, addend: 0x0, symName: '__ZNSt3__110__function12__alloc_funcIZ4mainE3$_0NS_9allocatorIS2_EEFdRKdEEC1B8ne180100EOS2_OS4_', symObjAddr: 0x4D20, symBinAddr: 0x100006208, symSize: 0x3C }
  - { offset: 0x109A4, size: 0x8, addend: 0x0, symName: '__ZNSt3__110__function6__funcIZ4mainE3$_0NS_9allocatorIS2_EEFdRKdEED1Ev', symObjAddr: 0x4D5C, symBinAddr: 0x100006244, symSize: 0x2C }
  - { offset: 0x109D0, size: 0x8, addend: 0x0, symName: '__ZNSt3__110__function6__funcIZ4mainE3$_0NS_9allocatorIS2_EEFdRKdEED0Ev', symObjAddr: 0x4D88, symBinAddr: 0x100006270, symSize: 0x30 }
  - { offset: 0x109FC, size: 0x8, addend: 0x0, symName: '__ZNKSt3__110__function6__funcIZ4mainE3$_0NS_9allocatorIS2_EEFdRKdEE7__cloneEv', symObjAddr: 0x4DB8, symBinAddr: 0x1000062A0, symSize: 0xFC }
  - { offset: 0x10A4E, size: 0x8, addend: 0x0, symName: '__ZNKSt3__110__function6__funcIZ4mainE3$_0NS_9allocatorIS2_EEFdRKdEE7__cloneEPNS0_6__baseIS7_EE', symObjAddr: 0x4EB4, symBinAddr: 0x10000639C, symSize: 0x58 }
  - { offset: 0x10A85, size: 0x8, addend: 0x0, symName: '__ZNSt3__110__function6__funcIZ4mainE3$_0NS_9allocatorIS2_EEFdRKdEE7destroyEv', symObjAddr: 0x4F0C, symBinAddr: 0x1000063F4, symSize: 0x28 }
  - { offset: 0x10AAD, size: 0x8, addend: 0x0, symName: '__ZNSt3__110__function6__funcIZ4mainE3$_0NS_9allocatorIS2_EEFdRKdEE18destroy_deallocateEv', symObjAddr: 0x4F34, symBinAddr: 0x10000641C, symSize: 0x58 }
  - { offset: 0x10AF0, size: 0x8, addend: 0x0, symName: '__ZNSt3__110__function6__funcIZ4mainE3$_0NS_9allocatorIS2_EEFdRKdEEclES6_', symObjAddr: 0x4F8C, symBinAddr: 0x100006474, symSize: 0x30 }
  - { offset: 0x10B27, size: 0x8, addend: 0x0, symName: '__ZNKSt3__110__function6__funcIZ4mainE3$_0NS_9allocatorIS2_EEFdRKdEE6targetERKSt9type_info', symObjAddr: 0x4FBC, symBinAddr: 0x1000064A4, symSize: 0x60 }
  - { offset: 0x10B5E, size: 0x8, addend: 0x0, symName: '__ZNKSt3__110__function6__funcIZ4mainE3$_0NS_9allocatorIS2_EEFdRKdEE11target_typeEv', symObjAddr: 0x501C, symBinAddr: 0x100006504, symSize: 0x18 }
  - { offset: 0x10B86, size: 0x8, addend: 0x0, symName: '__ZNSt3__110__function12__alloc_funcIZ4mainE3$_0NS_9allocatorIS2_EEFdRKdEEC2B8ne180100EOS2_OS4_', symObjAddr: 0x5034, symBinAddr: 0x10000651C, symSize: 0x5C }
  - { offset: 0x10BCC, size: 0x8, addend: 0x0, symName: '__ZNSt3__117__compressed_pairIZ4mainE3$_0NS_9allocatorIS1_EEEC1B8ne180100IJOS1_EJOS3_EEENS_21piecewise_construct_tENS_5tupleIJDpT_EEENS9_IJDpT0_EEE', symObjAddr: 0x50E8, symBinAddr: 0x1000065D0, symSize: 0x3C }
  - { offset: 0x10C36, size: 0x8, addend: 0x0, symName: '__ZNSt3__15tupleIJOZ4mainE3$_0EEC1B8ne180100IJS1_ELi0EEEDpOT_', symObjAddr: 0x5124, symBinAddr: 0x10000660C, symSize: 0x34 }
  - { offset: 0x10C80, size: 0x8, addend: 0x0, symName: '__ZNSt3__15tupleIJOZ4mainE3$_0EEC2B8ne180100IJS1_ELi0EEEDpOT_', symObjAddr: 0x5158, symBinAddr: 0x100006640, symSize: 0x34 }
  - { offset: 0x10CCA, size: 0x8, addend: 0x0, symName: '__ZNSt3__112__tuple_implINS_15__tuple_indicesIJLm0EEEEJOZ4mainE3$_0EEC1B8ne180100IJLm0EEJS4_EJEJEJS3_EEENS1_IJXspT_EEEENS_13__tuple_typesIJDpT0_EEENS1_IJXspT1_EEEENS8_IJDpT2_EEEDpOT3_', symObjAddr: 0x518C, symBinAddr: 0x100006674, symSize: 0x34 }
  - { offset: 0x10D5F, size: 0x8, addend: 0x0, symName: '__ZNSt3__112__tuple_implINS_15__tuple_indicesIJLm0EEEEJOZ4mainE3$_0EEC2B8ne180100IJLm0EEJS4_EJEJEJS3_EEENS1_IJXspT_EEEENS_13__tuple_typesIJDpT0_EEENS1_IJXspT1_EEEENS8_IJDpT2_EEEDpOT3_', symObjAddr: 0x51C0, symBinAddr: 0x1000066A8, symSize: 0x34 }
  - { offset: 0x10DF4, size: 0x8, addend: 0x0, symName: '__ZNSt3__112__tuple_leafILm0EOZ4mainE3$_0Lb0EEC2B8ne180100IS1_vEEOT_', symObjAddr: 0x51F4, symBinAddr: 0x1000066DC, symSize: 0x20 }
  - { offset: 0x10E37, size: 0x8, addend: 0x0, symName: '__ZNSt3__15tupleIJONS_9allocatorIZ4mainE3$_0EEEEC1B8ne180100IJS3_ELi0EEEDpOT_', symObjAddr: 0x5214, symBinAddr: 0x1000066FC, symSize: 0x34 }
  - { offset: 0x10E81, size: 0x8, addend: 0x0, symName: '__ZNSt3__15tupleIJONS_9allocatorIZ4mainE3$_0EEEEC2B8ne180100IJS3_ELi0EEEDpOT_', symObjAddr: 0x5248, symBinAddr: 0x100006730, symSize: 0x34 }
  - { offset: 0x10ECB, size: 0x8, addend: 0x0, symName: '__ZNSt3__112__tuple_implINS_15__tuple_indicesIJLm0EEEEJONS_9allocatorIZ4mainE3$_0EEEEC1B8ne180100IJLm0EEJS6_EJEJEJS5_EEENS1_IJXspT_EEEENS_13__tuple_typesIJDpT0_EEENS1_IJXspT1_EEEENSA_IJDpT2_EEEDpOT3_', symObjAddr: 0x527C, symBinAddr: 0x100006764, symSize: 0x34 }
  - { offset: 0x10F60, size: 0x8, addend: 0x0, symName: '__ZNSt3__112__tuple_implINS_15__tuple_indicesIJLm0EEEEJONS_9allocatorIZ4mainE3$_0EEEEC2B8ne180100IJLm0EEJS6_EJEJEJS5_EEENS1_IJXspT_EEEENS_13__tuple_typesIJDpT0_EEENS1_IJXspT1_EEEENSA_IJDpT2_EEEDpOT3_', symObjAddr: 0x52B0, symBinAddr: 0x100006798, symSize: 0x34 }
  - { offset: 0x10FF5, size: 0x8, addend: 0x0, symName: '__ZNSt3__112__tuple_leafILm0EONS_9allocatorIZ4mainE3$_0EELb0EEC2B8ne180100IS3_vEEOT_', symObjAddr: 0x52E4, symBinAddr: 0x1000067CC, symSize: 0x20 }
  - { offset: 0x11038, size: 0x8, addend: 0x0, symName: '__ZNSt3__117__compressed_pairIZ4mainE3$_0NS_9allocatorIS1_EEEC2B8ne180100IJOS1_EJOS3_EEENS_21piecewise_construct_tENS_5tupleIJDpT_EEENS9_IJDpT0_EEE', symObjAddr: 0x5304, symBinAddr: 0x1000067EC, symSize: 0x54 }
  - { offset: 0x110A2, size: 0x8, addend: 0x0, symName: '__ZNSt3__122__compressed_pair_elemIZ4mainE3$_0Li0ELb1EEC2B8ne180100IJOS1_EJLm0EEEENS_21piecewise_construct_tENS_5tupleIJDpT_EEENS_15__tuple_indicesIJXspT0_EEEE', symObjAddr: 0x5358, symBinAddr: 0x100006840, symSize: 0x38 }
  - { offset: 0x11105, size: 0x8, addend: 0x0, symName: '__ZNSt3__122__compressed_pair_elemINS_9allocatorIZ4mainE3$_0EELi1ELb1EEC2B8ne180100IJOS3_EJLm0EEEENS_21piecewise_construct_tENS_5tupleIJDpT_EEENS_15__tuple_indicesIJXspT0_EEEE', symObjAddr: 0x5390, symBinAddr: 0x100006878, symSize: 0x38 }
  - { offset: 0x11168, size: 0x8, addend: 0x0, symName: '__ZNSt3__112__tuple_leafILm0EOZ4mainE3$_0Lb0EE3getB8ne180100Ev', symObjAddr: 0x53EC, symBinAddr: 0x1000068D4, symSize: 0x18 }
  - { offset: 0x1118E, size: 0x8, addend: 0x0, symName: '__ZNSt3__112__tuple_leafILm0EONS_9allocatorIZ4mainE3$_0EELb0EE3getB8ne180100Ev', symObjAddr: 0x5428, symBinAddr: 0x100006910, symSize: 0x18 }
  - { offset: 0x111B4, size: 0x8, addend: 0x0, symName: '__ZNSt3__110__function6__funcIZ4mainE3$_0NS_9allocatorIS2_EEFdRKdEED2Ev', symObjAddr: 0x5440, symBinAddr: 0x100006928, symSize: 0x2C }
  - { offset: 0x111E0, size: 0x8, addend: 0x0, symName: '__ZNKSt3__110__function12__alloc_funcIZ4mainE3$_0NS_9allocatorIS2_EEFdRKdEE15__get_allocatorB8ne180100Ev', symObjAddr: 0x546C, symBinAddr: 0x100006954, symSize: 0x24 }
  - { offset: 0x11206, size: 0x8, addend: 0x0, symName: '__ZNSt3__19allocatorINS_10__function6__funcIZ4mainE3$_0NS0_IS3_EEFdRKdEEEE8allocateB8ne180100Em', symObjAddr: 0x5490, symBinAddr: 0x100006978, symSize: 0x58 }
  - { offset: 0x1124C, size: 0x8, addend: 0x0, symName: '__ZNSt3__122__allocator_destructorINS_9allocatorINS_10__function6__funcIZ4mainE3$_0NS1_IS4_EEFdRKdEEEEEEC1B8ne180100ERSA_m', symObjAddr: 0x54E8, symBinAddr: 0x1000069D0, symSize: 0x3C }
  - { offset: 0x11333, size: 0x8, addend: 0x0, symName: '__ZNSt3__110unique_ptrINS_10__function6__funcIZ4mainE3$_0NS_9allocatorIS3_EEFdRKdEEENS_22__allocator_destructorINS4_IS9_EEEEEC1B8ne180100ILb1EvEEPS9_NS_16__dependent_typeINS_27__unique_ptr_deleter_sfinaeISC_EEXT_EE20__good_rval_ref_typeE', symObjAddr: 0x5524, symBinAddr: 0x100006A0C, symSize: 0x3C }
  - { offset: 0x11384, size: 0x8, addend: 0x0, symName: '__ZNKSt3__110unique_ptrINS_10__function6__funcIZ4mainE3$_0NS_9allocatorIS3_EEFdRKdEEENS_22__allocator_destructorINS4_IS9_EEEEE3getB8ne180100Ev', symObjAddr: 0x5560, symBinAddr: 0x100006A48, symSize: 0x28 }
  - { offset: 0x113AA, size: 0x8, addend: 0x0, symName: '__ZNKSt3__110__function12__alloc_funcIZ4mainE3$_0NS_9allocatorIS2_EEFdRKdEE8__targetB8ne180100Ev', symObjAddr: 0x5588, symBinAddr: 0x100006A70, symSize: 0x24 }
  - { offset: 0x113D0, size: 0x8, addend: 0x0, symName: '__ZNSt3__110__function6__funcIZ4mainE3$_0NS_9allocatorIS2_EEFdRKdEEC1B8ne180100ERKS2_OS4_', symObjAddr: 0x55AC, symBinAddr: 0x100006A94, symSize: 0x3C }
  - { offset: 0x11418, size: 0x8, addend: 0x0, symName: '__ZNSt3__110unique_ptrINS_10__function6__funcIZ4mainE3$_0NS_9allocatorIS3_EEFdRKdEEENS_22__allocator_destructorINS4_IS9_EEEEE7releaseB8ne180100Ev', symObjAddr: 0x55E8, symBinAddr: 0x100006AD0, symSize: 0x44 }
  - { offset: 0x1144D, size: 0x8, addend: 0x0, symName: '__ZNSt3__110unique_ptrINS_10__function6__funcIZ4mainE3$_0NS_9allocatorIS3_EEFdRKdEEENS_22__allocator_destructorINS4_IS9_EEEEED1B8ne180100Ev', symObjAddr: 0x562C, symBinAddr: 0x100006B14, symSize: 0x2C }
  - { offset: 0x11477, size: 0x8, addend: 0x0, symName: '__ZNKSt3__117__compressed_pairIZ4mainE3$_0NS_9allocatorIS1_EEE6secondB8ne180100Ev', symObjAddr: 0x5658, symBinAddr: 0x100006B40, symSize: 0x24 }
  - { offset: 0x1149D, size: 0x8, addend: 0x0, symName: '__ZNKSt3__122__compressed_pair_elemINS_9allocatorIZ4mainE3$_0EELi1ELb1EE5__getB8ne180100Ev', symObjAddr: 0x567C, symBinAddr: 0x100006B64, symSize: 0x14 }
  - { offset: 0x114CE, size: 0x8, addend: 0x0, symName: '__ZNSt3__116allocator_traitsINS_9allocatorINS_10__function6__funcIZ4mainE3$_0NS1_IS4_EEFdRKdEEEEEE8max_sizeB8ne180100ISA_vEEmRKSA_', symObjAddr: 0x5690, symBinAddr: 0x100006B78, symSize: 0x24 }
  - { offset: 0x114FC, size: 0x8, addend: 0x0, symName: '__ZNKSt3__19allocatorINS_10__function6__funcIZ4mainE3$_0NS0_IS3_EEFdRKdEEEE8max_sizeB8ne180100Ev', symObjAddr: 0x56B4, symBinAddr: 0x100006B9C, symSize: 0x14 }
  - { offset: 0x11522, size: 0x8, addend: 0x0, symName: '__ZNSt3__122__allocator_destructorINS_9allocatorINS_10__function6__funcIZ4mainE3$_0NS1_IS4_EEFdRKdEEEEEEC2B8ne180100ERSA_m', symObjAddr: 0x56C8, symBinAddr: 0x100006BB0, symSize: 0x2C }
  - { offset: 0x11568, size: 0x8, addend: 0x0, symName: '__ZNSt3__110unique_ptrINS_10__function6__funcIZ4mainE3$_0NS_9allocatorIS3_EEFdRKdEEENS_22__allocator_destructorINS4_IS9_EEEEEC2B8ne180100ILb1EvEEPS9_NS_16__dependent_typeINS_27__unique_ptr_deleter_sfinaeISC_EEXT_EE20__good_rval_ref_typeE', symObjAddr: 0x56F4, symBinAddr: 0x100006BDC, symSize: 0x48 }
  - { offset: 0x115B9, size: 0x8, addend: 0x0, symName: '__ZNSt3__117__compressed_pairIPNS_10__function6__funcIZ4mainE3$_0NS_9allocatorIS3_EEFdRKdEEENS_22__allocator_destructorINS4_IS9_EEEEEC1B8ne180100IRSA_SD_EEOT_OT0_', symObjAddr: 0x573C, symBinAddr: 0x100006C24, symSize: 0x3C }
  - { offset: 0x11611, size: 0x8, addend: 0x0, symName: '__ZNSt3__117__compressed_pairIPNS_10__function6__funcIZ4mainE3$_0NS_9allocatorIS3_EEFdRKdEEENS_22__allocator_destructorINS4_IS9_EEEEEC2B8ne180100IRSA_SD_EEOT_OT0_', symObjAddr: 0x5778, symBinAddr: 0x100006C60, symSize: 0x48 }
  - { offset: 0x11669, size: 0x8, addend: 0x0, symName: '__ZNSt3__122__compressed_pair_elemIPNS_10__function6__funcIZ4mainE3$_0NS_9allocatorIS3_EEFdRKdEEELi0ELb0EEC2B8ne180100IRSA_vEEOT_', symObjAddr: 0x57C0, symBinAddr: 0x100006CA8, symSize: 0x24 }
  - { offset: 0x116AB, size: 0x8, addend: 0x0, symName: '__ZNSt3__122__compressed_pair_elemINS_22__allocator_destructorINS_9allocatorINS_10__function6__funcIZ4mainE3$_0NS2_IS5_EEFdRKdEEEEEEELi1ELb0EEC2B8ne180100ISC_vEEOT_', symObjAddr: 0x57E4, symBinAddr: 0x100006CCC, symSize: 0x24 }
  - { offset: 0x116ED, size: 0x8, addend: 0x0, symName: '__ZNKSt3__117__compressed_pairIPNS_10__function6__funcIZ4mainE3$_0NS_9allocatorIS3_EEFdRKdEEENS_22__allocator_destructorINS4_IS9_EEEEE5firstB8ne180100Ev', symObjAddr: 0x5808, symBinAddr: 0x100006CF0, symSize: 0x24 }
  - { offset: 0x11713, size: 0x8, addend: 0x0, symName: '__ZNKSt3__122__compressed_pair_elemIPNS_10__function6__funcIZ4mainE3$_0NS_9allocatorIS3_EEFdRKdEEELi0ELb0EE5__getB8ne180100Ev', symObjAddr: 0x582C, symBinAddr: 0x100006D14, symSize: 0x14 }
  - { offset: 0x11739, size: 0x8, addend: 0x0, symName: '__ZNKSt3__117__compressed_pairIZ4mainE3$_0NS_9allocatorIS1_EEE5firstB8ne180100Ev', symObjAddr: 0x5840, symBinAddr: 0x100006D28, symSize: 0x24 }
  - { offset: 0x1175F, size: 0x8, addend: 0x0, symName: '__ZNKSt3__122__compressed_pair_elemIZ4mainE3$_0Li0ELb1EE5__getB8ne180100Ev', symObjAddr: 0x5864, symBinAddr: 0x100006D4C, symSize: 0x14 }
  - { offset: 0x11785, size: 0x8, addend: 0x0, symName: '__ZNSt3__110__function6__funcIZ4mainE3$_0NS_9allocatorIS2_EEFdRKdEEC2B8ne180100ERKS2_OS4_', symObjAddr: 0x5878, symBinAddr: 0x100006D60, symSize: 0x80 }
  - { offset: 0x117CD, size: 0x8, addend: 0x0, symName: '__ZNSt3__110__function12__alloc_funcIZ4mainE3$_0NS_9allocatorIS2_EEFdRKdEEC1B8ne180100ERKS2_OS4_', symObjAddr: 0x58F8, symBinAddr: 0x100006DE0, symSize: 0x3C }
  - { offset: 0x11813, size: 0x8, addend: 0x0, symName: '__ZNSt3__110__function12__alloc_funcIZ4mainE3$_0NS_9allocatorIS2_EEFdRKdEEC2B8ne180100ERKS2_OS4_', symObjAddr: 0x5934, symBinAddr: 0x100006E1C, symSize: 0x5C }
  - { offset: 0x11859, size: 0x8, addend: 0x0, symName: '__ZNSt3__117__compressed_pairIZ4mainE3$_0NS_9allocatorIS1_EEEC1B8ne180100IJRKS1_EJOS3_EEENS_21piecewise_construct_tENS_5tupleIJDpT_EEENSA_IJDpT0_EEE', symObjAddr: 0x59BC, symBinAddr: 0x100006EA4, symSize: 0x3C }
  - { offset: 0x118C3, size: 0x8, addend: 0x0, symName: '__ZNSt3__15tupleIJRKZ4mainE3$_0EEC1B8ne180100INS_4_AndELi0EEES3_', symObjAddr: 0x59F8, symBinAddr: 0x100006EE0, symSize: 0x34 }
  - { offset: 0x1190B, size: 0x8, addend: 0x0, symName: '__ZNSt3__15tupleIJRKZ4mainE3$_0EEC2B8ne180100INS_4_AndELi0EEES3_', symObjAddr: 0x5A2C, symBinAddr: 0x100006F14, symSize: 0x34 }
  - { offset: 0x11953, size: 0x8, addend: 0x0, symName: '__ZNSt3__112__tuple_implINS_15__tuple_indicesIJLm0EEEEJRKZ4mainE3$_0EEC1B8ne180100IJLm0EEJS5_EJEJEJS5_EEENS1_IJXspT_EEEENS_13__tuple_typesIJDpT0_EEENS1_IJXspT1_EEEENS9_IJDpT2_EEEDpOT3_', symObjAddr: 0x5A60, symBinAddr: 0x100006F48, symSize: 0x34 }
  - { offset: 0x119E8, size: 0x8, addend: 0x0, symName: '__ZNSt3__112__tuple_implINS_15__tuple_indicesIJLm0EEEEJRKZ4mainE3$_0EEC2B8ne180100IJLm0EEJS5_EJEJEJS5_EEENS1_IJXspT_EEEENS_13__tuple_typesIJDpT0_EEENS1_IJXspT1_EEEENS9_IJDpT2_EEEDpOT3_', symObjAddr: 0x5A94, symBinAddr: 0x100006F7C, symSize: 0x34 }
  - { offset: 0x11A7D, size: 0x8, addend: 0x0, symName: '__ZNSt3__112__tuple_leafILm0ERKZ4mainE3$_0Lb0EEC2B8ne180100IS3_vEEOT_', symObjAddr: 0x5AC8, symBinAddr: 0x100006FB0, symSize: 0x20 }
  - { offset: 0x11AC0, size: 0x8, addend: 0x0, symName: '__ZNSt3__117__compressed_pairIZ4mainE3$_0NS_9allocatorIS1_EEEC2B8ne180100IJRKS1_EJOS3_EEENS_21piecewise_construct_tENS_5tupleIJDpT_EEENSA_IJDpT0_EEE', symObjAddr: 0x5AE8, symBinAddr: 0x100006FD0, symSize: 0x54 }
  - { offset: 0x11B2A, size: 0x8, addend: 0x0, symName: '__ZNSt3__122__compressed_pair_elemIZ4mainE3$_0Li0ELb1EEC2B8ne180100IJRKS1_EJLm0EEEENS_21piecewise_construct_tENS_5tupleIJDpT_EEENS_15__tuple_indicesIJXspT0_EEEE', symObjAddr: 0x5B3C, symBinAddr: 0x100007024, symSize: 0x38 }
  - { offset: 0x11B8D, size: 0x8, addend: 0x0, symName: '__ZNSt3__112__tuple_leafILm0ERKZ4mainE3$_0Lb0EE3getB8ne180100Ev', symObjAddr: 0x5B98, symBinAddr: 0x100007080, symSize: 0x18 }
  - { offset: 0x11BB3, size: 0x8, addend: 0x0, symName: '__ZNSt3__117__compressed_pairIPNS_10__function6__funcIZ4mainE3$_0NS_9allocatorIS3_EEFdRKdEEENS_22__allocator_destructorINS4_IS9_EEEEE5firstB8ne180100Ev', symObjAddr: 0x5BB0, symBinAddr: 0x100007098, symSize: 0x24 }
  - { offset: 0x11BD9, size: 0x8, addend: 0x0, symName: '__ZNSt3__122__compressed_pair_elemIPNS_10__function6__funcIZ4mainE3$_0NS_9allocatorIS3_EEFdRKdEEELi0ELb0EE5__getB8ne180100Ev', symObjAddr: 0x5BD4, symBinAddr: 0x1000070BC, symSize: 0x14 }
  - { offset: 0x11BFF, size: 0x8, addend: 0x0, symName: '__ZNSt3__110unique_ptrINS_10__function6__funcIZ4mainE3$_0NS_9allocatorIS3_EEFdRKdEEENS_22__allocator_destructorINS4_IS9_EEEEED2B8ne180100Ev', symObjAddr: 0x5BE8, symBinAddr: 0x1000070D0, symSize: 0x30 }
  - { offset: 0x11C29, size: 0x8, addend: 0x0, symName: '__ZNSt3__110unique_ptrINS_10__function6__funcIZ4mainE3$_0NS_9allocatorIS3_EEFdRKdEEENS_22__allocator_destructorINS4_IS9_EEEEE5resetB8ne180100EPS9_', symObjAddr: 0x5C18, symBinAddr: 0x100007100, symSize: 0x78 }
  - { offset: 0x11C6D, size: 0x8, addend: 0x0, symName: '__ZNSt3__117__compressed_pairIPNS_10__function6__funcIZ4mainE3$_0NS_9allocatorIS3_EEFdRKdEEENS_22__allocator_destructorINS4_IS9_EEEEE6secondB8ne180100Ev', symObjAddr: 0x5C90, symBinAddr: 0x100007178, symSize: 0x28 }
  - { offset: 0x11C93, size: 0x8, addend: 0x0, symName: '__ZNSt3__122__allocator_destructorINS_9allocatorINS_10__function6__funcIZ4mainE3$_0NS1_IS4_EEFdRKdEEEEEEclB8ne180100EPS9_', symObjAddr: 0x5CB8, symBinAddr: 0x1000071A0, symSize: 0x34 }
  - { offset: 0x11CC7, size: 0x8, addend: 0x0, symName: '__ZNSt3__122__compressed_pair_elemINS_22__allocator_destructorINS_9allocatorINS_10__function6__funcIZ4mainE3$_0NS2_IS5_EEFdRKdEEEEEEELi1ELb0EE5__getB8ne180100Ev', symObjAddr: 0x5CEC, symBinAddr: 0x1000071D4, symSize: 0x14 }
  - { offset: 0x11CED, size: 0x8, addend: 0x0, symName: '__ZNSt3__116allocator_traitsINS_9allocatorINS_10__function6__funcIZ4mainE3$_0NS1_IS4_EEFdRKdEEEEEE10deallocateB8ne180100ERSA_PS9_m', symObjAddr: 0x5D00, symBinAddr: 0x1000071E8, symSize: 0x34 }
  - { offset: 0x11D2F, size: 0x8, addend: 0x0, symName: '__ZNSt3__19allocatorINS_10__function6__funcIZ4mainE3$_0NS0_IS3_EEFdRKdEEEE10deallocateB8ne180100EPS8_m', symObjAddr: 0x5D34, symBinAddr: 0x10000721C, symSize: 0x40 }
  - { offset: 0x11D71, size: 0x8, addend: 0x0, symName: '__ZNSt3__110__function6__funcIZ4mainE3$_0NS_9allocatorIS2_EEFdRKdEEC1B8ne180100ERKS2_RKS4_', symObjAddr: 0x5D74, symBinAddr: 0x10000725C, symSize: 0x3C }
  - { offset: 0x11DB9, size: 0x8, addend: 0x0, symName: '__ZNSt3__110__function6__funcIZ4mainE3$_0NS_9allocatorIS2_EEFdRKdEEC2B8ne180100ERKS2_RKS4_', symObjAddr: 0x5DB0, symBinAddr: 0x100007298, symSize: 0x80 }
  - { offset: 0x11E01, size: 0x8, addend: 0x0, symName: '__ZNSt3__110__function12__alloc_funcIZ4mainE3$_0NS_9allocatorIS2_EEFdRKdEEC1B8ne180100ERKS2_RKS4_', symObjAddr: 0x5E30, symBinAddr: 0x100007318, symSize: 0x3C }
  - { offset: 0x11E47, size: 0x8, addend: 0x0, symName: '__ZNSt3__110__function12__alloc_funcIZ4mainE3$_0NS_9allocatorIS2_EEFdRKdEEC2B8ne180100ERKS2_RKS4_', symObjAddr: 0x5E6C, symBinAddr: 0x100007354, symSize: 0x5C }
  - { offset: 0x11E8D, size: 0x8, addend: 0x0, symName: '__ZNSt3__117__compressed_pairIZ4mainE3$_0NS_9allocatorIS1_EEEC1B8ne180100IJRKS1_EJRKS3_EEENS_21piecewise_construct_tENS_5tupleIJDpT_EEENSB_IJDpT0_EEE', symObjAddr: 0x5EF4, symBinAddr: 0x1000073DC, symSize: 0x3C }
  - { offset: 0x11EF7, size: 0x8, addend: 0x0, symName: '__ZNSt3__15tupleIJRKNS_9allocatorIZ4mainE3$_0EEEEC1B8ne180100INS_4_AndELi0EEES5_', symObjAddr: 0x5F30, symBinAddr: 0x100007418, symSize: 0x34 }
  - { offset: 0x11F3F, size: 0x8, addend: 0x0, symName: '__ZNSt3__15tupleIJRKNS_9allocatorIZ4mainE3$_0EEEEC2B8ne180100INS_4_AndELi0EEES5_', symObjAddr: 0x5F64, symBinAddr: 0x10000744C, symSize: 0x34 }
  - { offset: 0x11F87, size: 0x8, addend: 0x0, symName: '__ZNSt3__112__tuple_implINS_15__tuple_indicesIJLm0EEEEJRKNS_9allocatorIZ4mainE3$_0EEEEC1B8ne180100IJLm0EEJS7_EJEJEJS7_EEENS1_IJXspT_EEEENS_13__tuple_typesIJDpT0_EEENS1_IJXspT1_EEEENSB_IJDpT2_EEEDpOT3_', symObjAddr: 0x5F98, symBinAddr: 0x100007480, symSize: 0x34 }
  - { offset: 0x1201C, size: 0x8, addend: 0x0, symName: '__ZNSt3__112__tuple_implINS_15__tuple_indicesIJLm0EEEEJRKNS_9allocatorIZ4mainE3$_0EEEEC2B8ne180100IJLm0EEJS7_EJEJEJS7_EEENS1_IJXspT_EEEENS_13__tuple_typesIJDpT0_EEENS1_IJXspT1_EEEENSB_IJDpT2_EEEDpOT3_', symObjAddr: 0x5FCC, symBinAddr: 0x1000074B4, symSize: 0x34 }
  - { offset: 0x120B1, size: 0x8, addend: 0x0, symName: '__ZNSt3__112__tuple_leafILm0ERKNS_9allocatorIZ4mainE3$_0EELb0EEC2B8ne180100IS5_vEEOT_', symObjAddr: 0x6000, symBinAddr: 0x1000074E8, symSize: 0x20 }
  - { offset: 0x120F4, size: 0x8, addend: 0x0, symName: '__ZNSt3__117__compressed_pairIZ4mainE3$_0NS_9allocatorIS1_EEEC2B8ne180100IJRKS1_EJRKS3_EEENS_21piecewise_construct_tENS_5tupleIJDpT_EEENSB_IJDpT0_EEE', symObjAddr: 0x6020, symBinAddr: 0x100007508, symSize: 0x54 }
  - { offset: 0x1215E, size: 0x8, addend: 0x0, symName: '__ZNSt3__122__compressed_pair_elemINS_9allocatorIZ4mainE3$_0EELi1ELb1EEC2B8ne180100IJRKS3_EJLm0EEEENS_21piecewise_construct_tENS_5tupleIJDpT_EEENS_15__tuple_indicesIJXspT0_EEEE', symObjAddr: 0x6074, symBinAddr: 0x10000755C, symSize: 0x38 }
  - { offset: 0x121C1, size: 0x8, addend: 0x0, symName: '__ZNSt3__112__tuple_leafILm0ERKNS_9allocatorIZ4mainE3$_0EELb0EE3getB8ne180100Ev', symObjAddr: 0x60D0, symBinAddr: 0x1000075B8, symSize: 0x18 }
  - { offset: 0x121E7, size: 0x8, addend: 0x0, symName: '__ZNSt3__110__function12__alloc_funcIZ4mainE3$_0NS_9allocatorIS2_EEFdRKdEE7destroyB8ne180100Ev', symObjAddr: 0x60E8, symBinAddr: 0x1000075D0, symSize: 0x10 }
  - { offset: 0x1220D, size: 0x8, addend: 0x0, symName: '__ZNSt3__110__function12__alloc_funcIZ4mainE3$_0NS_9allocatorIS2_EEFdRKdEEclB8ne180100ES6_', symObjAddr: 0x60F8, symBinAddr: 0x1000075E0, symSize: 0x30 }
  - { offset: 0x12241, size: 0x8, addend: 0x0, symName: '__ZNSt3__128__invoke_void_return_wrapperIdLb0EE6__callB8ne180100IJRZ4mainE3$_0RKdEEEdDpOT_', symObjAddr: 0x6128, symBinAddr: 0x100007610, symSize: 0x2C }
  - { offset: 0x12284, size: 0x8, addend: 0x0, symName: '__ZNSt3__117__compressed_pairIZ4mainE3$_0NS_9allocatorIS1_EEE5firstB8ne180100Ev', symObjAddr: 0x6154, symBinAddr: 0x10000763C, symSize: 0x24 }
  - { offset: 0x122AA, size: 0x8, addend: 0x0, symName: '__ZZ4mainENK3$_0clERKd', symObjAddr: 0x61A4, symBinAddr: 0x10000768C, symSize: 0x40 }
  - { offset: 0x122E2, size: 0x8, addend: 0x0, symName: '__ZNSt3__122__compressed_pair_elemIZ4mainE3$_0Li0ELb1EE5__getB8ne180100Ev', symObjAddr: 0x61E4, symBinAddr: 0x1000076CC, symSize: 0x14 }
...
